
.build/software.elf:     file format elf32-littleriscv


Disassembly of section .text:

00050000 <reset_vec>:
   50000:	aa89                	j	50152 <start>
   50002:	0001                	nop
   50004:	00000013          	nop
   50008:	00000013          	nop
   5000c:	00000013          	nop

00050010 <irq_vec>:
   50010:	0200a10b          	.4byte	0x200a10b
   50014:	0201218b          	.4byte	0x201218b
   50018:	00000093          	li	ra,0
   5001c:	0000410b          	.4byte	0x410b
   50020:	0020a023          	sw	sp,0(ra)
   50024:	0001410b          	.4byte	0x1410b
   50028:	0020a223          	sw	sp,4(ra)
   5002c:	0001c10b          	.4byte	0x1c10b
   50030:	0020a423          	sw	sp,8(ra)
   50034:	0030a623          	sw	gp,12(ra)
   50038:	0040a823          	sw	tp,16(ra)
   5003c:	0050aa23          	sw	t0,20(ra)
   50040:	0060ac23          	sw	t1,24(ra)
   50044:	0070ae23          	sw	t2,28(ra)
   50048:	0280a023          	sw	s0,32(ra)
   5004c:	0290a223          	sw	s1,36(ra)
   50050:	02a0a423          	sw	a0,40(ra)
   50054:	02b0a623          	sw	a1,44(ra)
   50058:	02c0a823          	sw	a2,48(ra)
   5005c:	02d0aa23          	sw	a3,52(ra)
   50060:	02e0ac23          	sw	a4,56(ra)
   50064:	02f0ae23          	sw	a5,60(ra)
   50068:	0500a023          	sw	a6,64(ra)
   5006c:	0510a223          	sw	a7,68(ra)
   50070:	0520a423          	sw	s2,72(ra)
   50074:	0530a623          	sw	s3,76(ra)
   50078:	0540a823          	sw	s4,80(ra)
   5007c:	0550aa23          	sw	s5,84(ra)
   50080:	0560ac23          	sw	s6,88(ra)
   50084:	0570ae23          	sw	s7,92(ra)
   50088:	0780a023          	sw	s8,96(ra)
   5008c:	0790a223          	sw	s9,100(ra)
   50090:	07a0a423          	sw	s10,104(ra)
   50094:	07b0a623          	sw	s11,108(ra)
   50098:	07c0a823          	sw	t3,112(ra)
   5009c:	07d0aa23          	sw	t4,116(ra)
   500a0:	07e0ac23          	sw	t5,120(ra)
   500a4:	07f0ae23          	sw	t6,124(ra)
   500a8:	28000113          	li	sp,640
   500ac:	00000513          	li	a0,0
   500b0:	0000c58b          	.4byte	0xc58b
   500b4:	378000ef          	jal	5042c <irq>
   500b8:	80aa                	mv	ra,a0
   500ba:	0000a103          	lw	sp,0(ra)
   500be:	0201200b          	.4byte	0x201200b
   500c2:	0040a103          	lw	sp,4(ra)
   500c6:	0201210b          	.4byte	0x201210b
   500ca:	0080a103          	lw	sp,8(ra)
   500ce:	0201218b          	.4byte	0x201218b
   500d2:	00c0a183          	lw	gp,12(ra)
   500d6:	0100a203          	lw	tp,16(ra)
   500da:	0140a283          	lw	t0,20(ra)
   500de:	0180a303          	lw	t1,24(ra)
   500e2:	01c0a383          	lw	t2,28(ra)
   500e6:	0200a403          	lw	s0,32(ra)
   500ea:	0240a483          	lw	s1,36(ra)
   500ee:	0280a503          	lw	a0,40(ra)
   500f2:	02c0a583          	lw	a1,44(ra)
   500f6:	0300a603          	lw	a2,48(ra)
   500fa:	0340a683          	lw	a3,52(ra)
   500fe:	0380a703          	lw	a4,56(ra)
   50102:	03c0a783          	lw	a5,60(ra)
   50106:	0400a803          	lw	a6,64(ra)
   5010a:	0440a883          	lw	a7,68(ra)
   5010e:	0480a903          	lw	s2,72(ra)
   50112:	04c0a983          	lw	s3,76(ra)
   50116:	0500aa03          	lw	s4,80(ra)
   5011a:	0540aa83          	lw	s5,84(ra)
   5011e:	0580ab03          	lw	s6,88(ra)
   50122:	05c0ab83          	lw	s7,92(ra)
   50126:	0600ac03          	lw	s8,96(ra)
   5012a:	0640ac83          	lw	s9,100(ra)
   5012e:	0680ad03          	lw	s10,104(ra)
   50132:	06c0ad83          	lw	s11,108(ra)
   50136:	0700ae03          	lw	t3,112(ra)
   5013a:	0740ae83          	lw	t4,116(ra)
   5013e:	0780af03          	lw	t5,120(ra)
   50142:	07c0af83          	lw	t6,124(ra)
   50146:	0001408b          	.4byte	0x1408b
   5014a:	0001c10b          	.4byte	0x1c10b
   5014e:	0400000b          	.4byte	0x400000b

00050152 <start>:
   50152:	4081                	li	ra,0
   50154:	4181                	li	gp,0
   50156:	4201                	li	tp,0
   50158:	4281                	li	t0,0
   5015a:	4301                	li	t1,0
   5015c:	4381                	li	t2,0
   5015e:	4401                	li	s0,0
   50160:	4481                	li	s1,0
   50162:	4501                	li	a0,0
   50164:	4581                	li	a1,0
   50166:	4601                	li	a2,0
   50168:	4681                	li	a3,0
   5016a:	4701                	li	a4,0
   5016c:	4781                	li	a5,0
   5016e:	4801                	li	a6,0
   50170:	4881                	li	a7,0
   50172:	4901                	li	s2,0
   50174:	4981                	li	s3,0
   50176:	4a01                	li	s4,0
   50178:	4a81                	li	s5,0
   5017a:	4b01                	li	s6,0
   5017c:	4b81                	li	s7,0
   5017e:	4c01                	li	s8,0
   50180:	4c81                	li	s9,0
   50182:	4d01                	li	s10,0
   50184:	4d81                	li	s11,0
   50186:	4e01                	li	t3,0
   50188:	4e81                	li	t4,0
   5018a:	4f01                	li	t5,0
   5018c:	4f81                	li	t6,0
   5018e:	2e9d                	jal	50504 <main>

00050190 <loop>:
   50190:	a001                	j	50190 <loop>
	...

0005019e <init_data()>:
   5019e:	00000613          	li	a2,0
   501a2:	2ac00713          	li	a4,684
   501a6:	02e67763          	bgeu	a2,a4,501d4 <init_data()+0x36>
   501aa:	fff70693          	add	a3,a4,-1
   501ae:	8e91                	sub	a3,a3,a2
   501b0:	9af1                	and	a3,a3,-4
   501b2:	0691                	add	a3,a3,4
   501b4:	000515b7          	lui	a1,0x51
   501b8:	96b2                	add	a3,a3,a2
   501ba:	00000793          	li	a5,0
   501be:	d5058593          	add	a1,a1,-688 # 50d50 <_init_data_start>
   501c2:	40c78733          	sub	a4,a5,a2
   501c6:	972e                	add	a4,a4,a1
   501c8:	4318                	lw	a4,0(a4)
   501ca:	0791                	add	a5,a5,4
   501cc:	fee7ae23          	sw	a4,-4(a5)
   501d0:	fed799e3          	bne	a5,a3,501c2 <init_data()+0x24>
   501d4:	8082                	ret

000501d6 <init_bss()>:
   501d6:	2ac00713          	li	a4,684
   501da:	2e000693          	li	a3,736
   501de:	00d77e63          	bgeu	a4,a3,501fa <init_bss()+0x24>
   501e2:	16fd                	add	a3,a3,-1
   501e4:	8e99                	sub	a3,a3,a4
   501e6:	9af1                	and	a3,a3,-4
   501e8:	0691                	add	a3,a3,4
   501ea:	9736                	add	a4,a4,a3
   501ec:	2ac00793          	li	a5,684
   501f0:	0007a023          	sw	zero,0(a5)
   501f4:	0791                	add	a5,a5,4
   501f6:	fee79de3          	bne	a5,a4,501f0 <init_bss()+0x1a>
   501fa:	8082                	ret

000501fc <init_array()>:
   501fc:	1141                	add	sp,sp,-16
   501fe:	c422                	sw	s0,8(sp)
   50200:	c226                	sw	s1,4(sp)
   50202:	c606                	sw	ra,12(sp)
   50204:	2a400793          	li	a5,676
   50208:	2ac00493          	li	s1,684
   5020c:	0097f963          	bgeu	a5,s1,5021e <init_array()+0x22>
   50210:	2a400413          	li	s0,676
   50214:	401c                	lw	a5,0(s0)
   50216:	0411                	add	s0,s0,4
   50218:	9782                	jalr	a5
   5021a:	fe946de3          	bltu	s0,s1,50214 <init_array()+0x18>
   5021e:	40b2                	lw	ra,12(sp)
   50220:	4422                	lw	s0,8(sp)
   50222:	4492                	lw	s1,4(sp)
   50224:	0141                	add	sp,sp,16
   50226:	8082                	ret

00050228 <set_irq_mask(unsigned long)>:
   50228:	0605650b          	.4byte	0x605650b
   5022c:	8082                	ret

0005022e <wait_irq()>:
   5022e:	0800650b          	.4byte	0x800650b
   50232:	8082                	ret

00050234 <set_timer(unsigned long)>:
   50234:	0a05650b          	.4byte	0xa05650b
   50238:	8082                	ret

0005023a <rdcycle_l()>:
   5023a:	c0002573          	rdcycle	a0
   5023e:	8082                	ret

00050240 <rdcycle_h()>:
   50240:	c8002573          	rdcycleh	a0
   50244:	8082                	ret

00050246 <rdcycle(long)>:
   50246:	c8002773          	rdcycleh	a4
   5024a:	c00027f3          	rdcycle	a5
   5024e:	02000693          	li	a3,32
   50252:	8e89                	sub	a3,a3,a0
   50254:	00d71733          	sll	a4,a4,a3
   50258:	00a7d533          	srl	a0,a5,a0
   5025c:	8d59                	or	a0,a0,a4
   5025e:	8082                	ret

00050260 <delay(unsigned long, unsigned long)>:
   50260:	c80027f3          	rdcycleh	a5
   50264:	c0002773          	rdcycle	a4
   50268:	95ba                	add	a1,a1,a4
   5026a:	953e                	add	a0,a0,a5
   5026c:	e581                	bnez	a1,50274 <delay(unsigned long, unsigned long)+0x14>
   5026e:	a809                	j	50280 <delay(unsigned long, unsigned long)+0x20>
   50270:	00b77863          	bgeu	a4,a1,50280 <delay(unsigned long, unsigned long)+0x20>
   50274:	c80027f3          	rdcycleh	a5
   50278:	c0002773          	rdcycle	a4
   5027c:	fef57ae3          	bgeu	a0,a5,50270 <delay(unsigned long, unsigned long)+0x10>
   50280:	8082                	ret

00050282 <delayUs(unsigned long)>:
   50282:	c80026f3          	rdcycleh	a3
   50286:	c00027f3          	rdcycle	a5
   5028a:	06f2                	sll	a3,a3,0x1c
   5028c:	8391                	srl	a5,a5,0x4
   5028e:	8edd                	or	a3,a3,a5
   50290:	96aa                	add	a3,a3,a0
   50292:	ca91                	beqz	a3,502a6 <delayUs(unsigned long)+0x24>
   50294:	c80027f3          	rdcycleh	a5
   50298:	c0002773          	rdcycle	a4
   5029c:	07f2                	sll	a5,a5,0x1c
   5029e:	8311                	srl	a4,a4,0x4
   502a0:	8fd9                	or	a5,a5,a4
   502a2:	fed7e9e3          	bltu	a5,a3,50294 <delayUs(unsigned long)+0x12>
   502a6:	8082                	ret

000502a8 <delayMs(unsigned long)>:
   502a8:	c80026f3          	rdcycleh	a3
   502ac:	c00027f3          	rdcycle	a5
   502b0:	3e800713          	li	a4,1000
   502b4:	02e50533          	mul	a0,a0,a4
   502b8:	06f2                	sll	a3,a3,0x1c
   502ba:	8391                	srl	a5,a5,0x4
   502bc:	8edd                	or	a3,a3,a5
   502be:	96aa                	add	a3,a3,a0
   502c0:	ca91                	beqz	a3,502d4 <delayMs(unsigned long)+0x2c>
   502c2:	c80027f3          	rdcycleh	a5
   502c6:	c0002773          	rdcycle	a4
   502ca:	07f2                	sll	a5,a5,0x1c
   502cc:	8311                	srl	a4,a4,0x4
   502ce:	8fd9                	or	a5,a5,a4
   502d0:	fed7e9e3          	bltu	a5,a3,502c2 <delayMs(unsigned long)+0x1a>
   502d4:	8082                	ret

000502d6 <analog_blink(Analog&, unsigned long, unsigned long)>:
   502d6:	1101                	add	sp,sp,-32
   502d8:	ca26                	sw	s1,20(sp)
   502da:	c84a                	sw	s2,16(sp)
   502dc:	c64e                	sw	s3,12(sp)
   502de:	c452                	sw	s4,8(sp)
   502e0:	c256                	sw	s5,4(sp)
   502e2:	ce06                	sw	ra,28(sp)
   502e4:	cc22                	sw	s0,24(sp)
   502e6:	892a                	mv	s2,a0
   502e8:	84b2                	mv	s1,a2
   502ea:	4a95                	li	s5,5
   502ec:	10000a13          	li	s4,256
   502f0:	59fd                	li	s3,-1
   502f2:	4401                	li	s0,0
   502f4:	00092783          	lw	a5,0(s2)
   502f8:	8526                	mv	a0,s1
   502fa:	c380                	sw	s0,0(a5)
   502fc:	0405                	add	s0,s0,1
   502fe:	3751                	jal	50282 <delayUs(unsigned long)>
   50300:	ff441ae3          	bne	s0,s4,502f4 <analog_blink(Analog&, unsigned long, unsigned long)+0x1e>
   50304:	00092783          	lw	a5,0(s2)
   50308:	8526                	mv	a0,s1
   5030a:	c380                	sw	s0,0(a5)
   5030c:	147d                	add	s0,s0,-1
   5030e:	3f95                	jal	50282 <delayUs(unsigned long)>
   50310:	ff341ae3          	bne	s0,s3,50304 <analog_blink(Analog&, unsigned long, unsigned long)+0x2e>
   50314:	1afd                	add	s5,s5,-1
   50316:	fc0a9ee3          	bnez	s5,502f2 <analog_blink(Analog&, unsigned long, unsigned long)+0x1c>
   5031a:	40f2                	lw	ra,28(sp)
   5031c:	4462                	lw	s0,24(sp)
   5031e:	44d2                	lw	s1,20(sp)
   50320:	4942                	lw	s2,16(sp)
   50322:	49b2                	lw	s3,12(sp)
   50324:	4a22                	lw	s4,8(sp)
   50326:	4a92                	lw	s5,4(sp)
   50328:	6105                	add	sp,sp,32
   5032a:	8082                	ret

0005032c <Serial::read()>:
   5032c:	411c                	lw	a5,0(a0)
   5032e:	43c8                	lw	a0,4(a5)
   50330:	8082                	ret

00050332 <Serial::receive()>:
   50332:	1141                	add	sp,sp,-16
   50334:	c422                	sw	s0,8(sp)
   50336:	c606                	sw	ra,12(sp)
   50338:	842a                	mv	s0,a0
   5033a:	3701                	jal	5023a <rdcycle_l()>
   5033c:	4018                	lw	a4,0(s0)
   5033e:	57fd                	li	a5,-1
   50340:	4348                	lw	a0,4(a4)
   50342:	fef50fe3          	beq	a0,a5,50340 <Serial::receive()+0xe>
   50346:	40b2                	lw	ra,12(sp)
   50348:	4422                	lw	s0,8(sp)
   5034a:	0141                	add	sp,sp,16
   5034c:	8082                	ret

0005034e <Serial::receive(unsigned long)>:
   5034e:	1141                	add	sp,sp,-16
   50350:	c226                	sw	s1,4(sp)
   50352:	84aa                	mv	s1,a0
   50354:	4511                	li	a0,4
   50356:	c422                	sw	s0,8(sp)
   50358:	c04a                	sw	s2,0(sp)
   5035a:	842e                	mv	s0,a1
   5035c:	c606                	sw	ra,12(sp)
   5035e:	35e5                	jal	50246 <rdcycle(long)>
   50360:	942a                	add	s0,s0,a0
   50362:	597d                	li	s2,-1
   50364:	a029                	j	5036e <Serial::receive(unsigned long)+0x20>
   50366:	409c                	lw	a5,0(s1)
   50368:	43c8                	lw	a0,4(a5)
   5036a:	01251763          	bne	a0,s2,50378 <Serial::receive(unsigned long)+0x2a>
   5036e:	4511                	li	a0,4
   50370:	3dd9                	jal	50246 <rdcycle(long)>
   50372:	fea47ae3          	bgeu	s0,a0,50366 <Serial::receive(unsigned long)+0x18>
   50376:	557d                	li	a0,-1
   50378:	40b2                	lw	ra,12(sp)
   5037a:	4422                	lw	s0,8(sp)
   5037c:	4492                	lw	s1,4(sp)
   5037e:	4902                	lw	s2,0(sp)
   50380:	0141                	add	sp,sp,16
   50382:	8082                	ret

00050384 <Serial::read_int()>:
   50384:	1101                	add	sp,sp,-32
   50386:	cc22                	sw	s0,24(sp)
   50388:	ca26                	sw	s1,20(sp)
   5038a:	c84a                	sw	s2,16(sp)
   5038c:	c64e                	sw	s3,12(sp)
   5038e:	ce06                	sw	ra,28(sp)
   50390:	892a                	mv	s2,a0
   50392:	4481                	li	s1,0
   50394:	547d                	li	s0,-1
   50396:	49a5                	li	s3,9
   50398:	354d                	jal	5023a <rdcycle_l()>
   5039a:	00092703          	lw	a4,0(s2)
   5039e:	435c                	lw	a5,4(a4)
   503a0:	fe878fe3          	beq	a5,s0,5039e <Serial::read_int()+0x1a>
   503a4:	fd078713          	add	a4,a5,-48
   503a8:	0ff77713          	zext.b	a4,a4
   503ac:	00e9ed63          	bltu	s3,a4,503c6 <Serial::read_int()+0x42>
   503b0:	00249713          	sll	a4,s1,0x2
   503b4:	0ff7f793          	zext.b	a5,a5
   503b8:	9726                	add	a4,a4,s1
   503ba:	fd078793          	add	a5,a5,-48
   503be:	0706                	sll	a4,a4,0x1
   503c0:	94be                	add	s1,s1,a5
   503c2:	94ba                	add	s1,s1,a4
   503c4:	bfd1                	j	50398 <Serial::read_int()+0x14>
   503c6:	40f2                	lw	ra,28(sp)
   503c8:	4462                	lw	s0,24(sp)
   503ca:	4942                	lw	s2,16(sp)
   503cc:	49b2                	lw	s3,12(sp)
   503ce:	8526                	mv	a0,s1
   503d0:	44d2                	lw	s1,20(sp)
   503d2:	6105                	add	sp,sp,32
   503d4:	8082                	ret

000503d6 <char_to_int(char)>:
   503d6:	87aa                	mv	a5,a0
   503d8:	fd050513          	add	a0,a0,-48
   503dc:	0ff57693          	zext.b	a3,a0
   503e0:	4725                	li	a4,9
   503e2:	02d77263          	bgeu	a4,a3,50406 <char_to_int(char)+0x30>
   503e6:	fbf78713          	add	a4,a5,-65
   503ea:	0ff77713          	zext.b	a4,a4
   503ee:	4695                	li	a3,5
   503f0:	00e6fc63          	bgeu	a3,a4,50408 <char_to_int(char)+0x32>
   503f4:	f9f78713          	add	a4,a5,-97
   503f8:	0ff77713          	zext.b	a4,a4
   503fc:	557d                	li	a0,-1
   503fe:	00e6e463          	bltu	a3,a4,50406 <char_to_int(char)+0x30>
   50402:	fa978513          	add	a0,a5,-87
   50406:	8082                	ret
   50408:	fc978513          	add	a0,a5,-55
   5040c:	8082                	ret
   5040e:	8082                	ret
   50410:	8082                	ret

00050412 <irq3()>:
   50412:	8082                	ret

00050414 <irq4()>:
   50414:	8082                	ret

00050416 <irq5()>:
   50416:	8082                	ret

00050418 <irq6()>:
   50418:	8082                	ret

0005041a <irq7()>:
   5041a:	8082                	ret

0005041c <irq8()>:
   5041c:	8082                	ret

0005041e <irq9()>:
   5041e:	8082                	ret

00050420 <irq10()>:
   50420:	8082                	ret

00050422 <irq11()>:
   50422:	8082                	ret

00050424 <irq12()>:
   50424:	8082                	ret

00050426 <irq13()>:
   50426:	8082                	ret

00050428 <irq14()>:
   50428:	8082                	ret

0005042a <irq15()>:
   5042a:	8082                	ret

0005042c <irq>:
   5042c:	1141                	add	sp,sp,-16
   5042e:	c422                	sw	s0,8(sp)
   50430:	c226                	sw	s1,4(sp)
   50432:	c606                	sw	ra,12(sp)
   50434:	0085f793          	and	a5,a1,8
   50438:	842e                	mv	s0,a1
   5043a:	84aa                	mv	s1,a0
   5043c:	efa1                	bnez	a5,50494 <irq+0x68>
   5043e:	01047793          	and	a5,s0,16
   50442:	efa9                	bnez	a5,5049c <irq+0x70>
   50444:	02047793          	and	a5,s0,32
   50448:	efb1                	bnez	a5,504a4 <irq+0x78>
   5044a:	04047793          	and	a5,s0,64
   5044e:	efb9                	bnez	a5,504ac <irq+0x80>
   50450:	08047793          	and	a5,s0,128
   50454:	e3a5                	bnez	a5,504b4 <irq+0x88>
   50456:	10047793          	and	a5,s0,256
   5045a:	e3ad                	bnez	a5,504bc <irq+0x90>
   5045c:	20047793          	and	a5,s0,512
   50460:	e3b5                	bnez	a5,504c4 <irq+0x98>
   50462:	40047793          	and	a5,s0,1024
   50466:	e3bd                	bnez	a5,504cc <irq+0xa0>
   50468:	00b45793          	srl	a5,s0,0xb
   5046c:	8b85                	and	a5,a5,1
   5046e:	e7a5                	bnez	a5,504d6 <irq+0xaa>
   50470:	6785                	lui	a5,0x1
   50472:	8fe1                	and	a5,a5,s0
   50474:	e7ad                	bnez	a5,504de <irq+0xb2>
   50476:	6789                	lui	a5,0x2
   50478:	8fe1                	and	a5,a5,s0
   5047a:	e7b5                	bnez	a5,504e6 <irq+0xba>
   5047c:	6791                	lui	a5,0x4
   5047e:	8fe1                	and	a5,a5,s0
   50480:	e7bd                	bnez	a5,504ee <irq+0xc2>
   50482:	67a1                	lui	a5,0x8
   50484:	8c7d                	and	s0,s0,a5
   50486:	e825                	bnez	s0,504f6 <irq+0xca>
   50488:	40b2                	lw	ra,12(sp)
   5048a:	4422                	lw	s0,8(sp)
   5048c:	8526                	mv	a0,s1
   5048e:	4492                	lw	s1,4(sp)
   50490:	0141                	add	sp,sp,16
   50492:	8082                	ret
   50494:	3fbd                	jal	50412 <irq3()>
   50496:	01047793          	and	a5,s0,16
   5049a:	d7cd                	beqz	a5,50444 <irq+0x18>
   5049c:	3fa5                	jal	50414 <irq4()>
   5049e:	02047793          	and	a5,s0,32
   504a2:	d7c5                	beqz	a5,5044a <irq+0x1e>
   504a4:	3f8d                	jal	50416 <irq5()>
   504a6:	04047793          	and	a5,s0,64
   504aa:	d3dd                	beqz	a5,50450 <irq+0x24>
   504ac:	37b5                	jal	50418 <irq6()>
   504ae:	08047793          	and	a5,s0,128
   504b2:	d3d5                	beqz	a5,50456 <irq+0x2a>
   504b4:	379d                	jal	5041a <irq7()>
   504b6:	10047793          	and	a5,s0,256
   504ba:	d3cd                	beqz	a5,5045c <irq+0x30>
   504bc:	3785                	jal	5041c <irq8()>
   504be:	20047793          	and	a5,s0,512
   504c2:	d3c5                	beqz	a5,50462 <irq+0x36>
   504c4:	3fa9                	jal	5041e <irq9()>
   504c6:	40047793          	and	a5,s0,1024
   504ca:	dfd9                	beqz	a5,50468 <irq+0x3c>
   504cc:	3f91                	jal	50420 <irq10()>
   504ce:	00b45793          	srl	a5,s0,0xb
   504d2:	8b85                	and	a5,a5,1
   504d4:	dfd1                	beqz	a5,50470 <irq+0x44>
   504d6:	37b1                	jal	50422 <irq11()>
   504d8:	6785                	lui	a5,0x1
   504da:	8fe1                	and	a5,a5,s0
   504dc:	dfc9                	beqz	a5,50476 <irq+0x4a>
   504de:	3799                	jal	50424 <irq12()>
   504e0:	6789                	lui	a5,0x2
   504e2:	8fe1                	and	a5,a5,s0
   504e4:	dfc1                	beqz	a5,5047c <irq+0x50>
   504e6:	3781                	jal	50426 <irq13()>
   504e8:	6791                	lui	a5,0x4
   504ea:	8fe1                	and	a5,a5,s0
   504ec:	dbd9                	beqz	a5,50482 <irq+0x56>
   504ee:	3f2d                	jal	50428 <irq14()>
   504f0:	67a1                	lui	a5,0x8
   504f2:	8c7d                	and	s0,s0,a5
   504f4:	d851                	beqz	s0,50488 <irq+0x5c>
   504f6:	3f15                	jal	5042a <irq15()>
   504f8:	40b2                	lw	ra,12(sp)
   504fa:	4422                	lw	s0,8(sp)
   504fc:	8526                	mv	a0,s1
   504fe:	4492                	lw	s1,4(sp)
   50500:	0141                	add	sp,sp,16
   50502:	8082                	ret

00050504 <main>:
   50504:	1141                	add	sp,sp,-16
   50506:	c606                	sw	ra,12(sp)
   50508:	3959                	jal	5019e <init_data()>
   5050a:	31f1                	jal	501d6 <init_bss()>
   5050c:	39c5                	jal	501fc <init_array()>
   5050e:	2c002683          	lw	a3,704(zero) # 2c0 <rom_cfg>
   50512:	ff810737          	lui	a4,0xff810
   50516:	177d                	add	a4,a4,-1 # ff80ffff <_init_data_start+0xff7bf2af>
   50518:	429c                	lw	a5,0(a3)
   5051a:	8ff9                	and	a5,a5,a4
   5051c:	00400737          	lui	a4,0x400
   50520:	8fd9                	or	a5,a5,a4
   50522:	c29c                	sw	a5,0(a3)
   50524:	205d                	jal	505ca <init()>
   50526:	20ed                	jal	50610 <loop()>
   50528:	bffd                	j	50526 <main+0x22>

0005052a <_GLOBAL__sub_I_rom_cfg>:
   5052a:	02000737          	lui	a4,0x2000
   5052e:	2ce02023          	sw	a4,704(zero) # 2c0 <rom_cfg>
   50532:	03000737          	lui	a4,0x3000
   50536:	2ae02e23          	sw	a4,700(zero) # 2bc <serial0>
   5053a:	04000737          	lui	a4,0x4000
   5053e:	2ae02c23          	sw	a4,696(zero) # 2b8 <serial1>
   50542:	05000737          	lui	a4,0x5000
   50546:	2ae02a23          	sw	a4,692(zero) # 2b4 <serial2>
   5054a:	06000737          	lui	a4,0x6000
   5054e:	2ae02823          	sw	a4,688(zero) # 2b0 <serial3>
   50552:	07000737          	lui	a4,0x7000
   50556:	2ae02623          	sw	a4,684(zero) # 2ac <serial4>
   5055a:	8082                	ret

0005055c <broadcast(char)>:
   5055c:	2c400793          	li	a5,708
   50560:	4398                	lw	a4,0(a5)
   50562:	43d0                	lw	a2,4(a5)
   50564:	4794                	lw	a3,8(a5)
   50566:	c348                	sw	a0,4(a4)
   50568:	47d8                	lw	a4,12(a5)
   5056a:	4b9c                	lw	a5,16(a5)
   5056c:	c248                	sw	a0,4(a2)
   5056e:	c2c8                	sw	a0,4(a3)
   50570:	c348                	sw	a0,4(a4)
   50572:	c3c8                	sw	a0,4(a5)
   50574:	8082                	ret

00050576 <broadcast(char const*)>:
   50576:	00054783          	lbu	a5,0(a0)
   5057a:	2c400613          	li	a2,708
   5057e:	01060593          	add	a1,a2,16
   50582:	cf91                	beqz	a5,5059e <broadcast(char const*)+0x28>
   50584:	4214                	lw	a3,0(a2)
   50586:	872a                	mv	a4,a0
   50588:	0705                	add	a4,a4,1 # 7000001 <_init_data_start+0x6faf2b1>
   5058a:	c2dc                	sw	a5,4(a3)
   5058c:	00074783          	lbu	a5,0(a4)
   50590:	ffe5                	bnez	a5,50588 <broadcast(char const*)+0x12>
   50592:	00c58663          	beq	a1,a2,5059e <broadcast(char const*)+0x28>
   50596:	00054783          	lbu	a5,0(a0)
   5059a:	0611                	add	a2,a2,4
   5059c:	f7e5                	bnez	a5,50584 <broadcast(char const*)+0xe>
   5059e:	8082                	ret

000505a0 <broadcast(unsigned long)>:
   505a0:	00051737          	lui	a4,0x51
   505a4:	893d                	and	a0,a0,15
   505a6:	83470713          	add	a4,a4,-1996 # 50834 <_GLOBAL__sub_I_serial+0x24>
   505aa:	2c400793          	li	a5,708
   505ae:	972a                	add	a4,a4,a0
   505b0:	00074703          	lbu	a4,0(a4)
   505b4:	4394                	lw	a3,0(a5)
   505b6:	43cc                	lw	a1,4(a5)
   505b8:	4790                	lw	a2,8(a5)
   505ba:	c2d8                	sw	a4,4(a3)
   505bc:	47d4                	lw	a3,12(a5)
   505be:	4b9c                	lw	a5,16(a5)
   505c0:	c1d8                	sw	a4,4(a1)
   505c2:	c258                	sw	a4,4(a2)
   505c4:	c2d8                	sw	a4,4(a3)
   505c6:	c3d8                	sw	a4,4(a5)
   505c8:	8082                	ret

000505ca <init()>:
   505ca:	2c400713          	li	a4,708
   505ce:	4314                	lw	a3,0(a4)
   505d0:	4348                	lw	a0,4(a4)
   505d2:	470c                	lw	a1,8(a4)
   505d4:	68200793          	li	a5,1666
   505d8:	c29c                	sw	a5,0(a3)
   505da:	4754                	lw	a3,12(a4)
   505dc:	c11c                	sw	a5,0(a0)
   505de:	4b18                	lw	a4,16(a4)
   505e0:	c19c                	sw	a5,0(a1)
   505e2:	c29c                	sw	a5,0(a3)
   505e4:	2c400613          	li	a2,708
   505e8:	000515b7          	lui	a1,0x51
   505ec:	c31c                	sw	a5,0(a4)
   505ee:	01460513          	add	a0,a2,20
   505f2:	84858593          	add	a1,a1,-1976 # 50848 <_GLOBAL__sub_I_serial+0x38>
   505f6:	4214                	lw	a3,0(a2)
   505f8:	05700713          	li	a4,87
   505fc:	87ae                	mv	a5,a1
   505fe:	0785                	add	a5,a5,1 # 8001 <_bss_end+0x7d21>
   50600:	c2d8                	sw	a4,4(a3)
   50602:	0007c703          	lbu	a4,0(a5)
   50606:	ff65                	bnez	a4,505fe <init()+0x34>
   50608:	0611                	add	a2,a2,4
   5060a:	fea616e3          	bne	a2,a0,505f6 <init()+0x2c>
   5060e:	8082                	ret

00050610 <loop()>:
   50610:	7179                	add	sp,sp,-48
   50612:	c65e                	sw	s7,12(sp)
   50614:	d04a                	sw	s2,32(sp)
   50616:	ce4e                	sw	s3,28(sp)
   50618:	cc52                	sw	s4,24(sp)
   5061a:	d606                	sw	ra,44(sp)
   5061c:	d422                	sw	s0,40(sp)
   5061e:	d226                	sw	s1,36(sp)
   50620:	ca56                	sw	s5,20(sp)
   50622:	c85a                	sw	s6,16(sp)
   50624:	c462                	sw	s8,8(sp)
   50626:	4901                	li	s2,0
   50628:	2c400b93          	li	s7,708
   5062c:	59fd                	li	s3,-1
   5062e:	4a15                	li	s4,5
   50630:	a019                	j	50636 <loop()+0x26>
   50632:	0347f933          	remu	s2,a5,s4
   50636:	00291493          	sll	s1,s2,0x2
   5063a:	009b8433          	add	s0,s7,s1
   5063e:	3e800593          	li	a1,1000
   50642:	8522                	mv	a0,s0
   50644:	3329                	jal	5034e <Serial::receive(unsigned long)>
   50646:	00190793          	add	a5,s2,1
   5064a:	ff3504e3          	beq	a0,s3,50632 <loop()+0x22>
   5064e:	28000793          	li	a5,640
   50652:	97a6                	add	a5,a5,s1
   50654:	438c                	lw	a1,0(a5)
   50656:	010b8813          	add	a6,s7,16
   5065a:	865e                	mv	a2,s7
   5065c:	0005c783          	lbu	a5,0(a1)
   50660:	cf91                	beqz	a5,5067c <loop()+0x6c>
   50662:	4214                	lw	a3,0(a2)
   50664:	872e                	mv	a4,a1
   50666:	0705                	add	a4,a4,1
   50668:	c2dc                	sw	a5,4(a3)
   5066a:	00074783          	lbu	a5,0(a4)
   5066e:	ffe5                	bnez	a5,50666 <loop()+0x56>
   50670:	01060663          	beq	a2,a6,5067c <loop()+0x6c>
   50674:	0005c783          	lbu	a5,0(a1)
   50678:	0611                	add	a2,a2,4
   5067a:	f7e5                	bnez	a5,50662 <loop()+0x52>
   5067c:	000515b7          	lui	a1,0x51
   50680:	014b8c13          	add	s8,s7,20
   50684:	865e                	mv	a2,s7
   50686:	86458593          	add	a1,a1,-1948 # 50864 <_GLOBAL__sub_I_serial+0x54>
   5068a:	4214                	lw	a3,0(a2)
   5068c:	05500713          	li	a4,85
   50690:	87ae                	mv	a5,a1
   50692:	0785                	add	a5,a5,1
   50694:	c2d8                	sw	a4,4(a3)
   50696:	0007c703          	lbu	a4,0(a5)
   5069a:	ff65                	bnez	a4,50692 <loop()+0x82>
   5069c:	0611                	add	a2,a2,4
   5069e:	fecc16e3          	bne	s8,a2,5068a <loop()+0x7a>
   506a2:	000517b7          	lui	a5,0x51
   506a6:	83478793          	add	a5,a5,-1996 # 50834 <_GLOBAL__sub_I_serial+0x24>
   506aa:	97ca                	add	a5,a5,s2
   506ac:	0007c783          	lbu	a5,0(a5)
   506b0:	000ba683          	lw	a3,0(s7)
   506b4:	004ba703          	lw	a4,4(s7)
   506b8:	008ba603          	lw	a2,8(s7)
   506bc:	c2dc                	sw	a5,4(a3)
   506be:	00cba683          	lw	a3,12(s7)
   506c2:	c35c                	sw	a5,4(a4)
   506c4:	010ba703          	lw	a4,16(s7)
   506c8:	c25c                	sw	a5,4(a2)
   506ca:	c2dc                	sw	a5,4(a3)
   506cc:	2a002583          	lw	a1,672(zero) # 2a0 <COLOR_CLEAR>
   506d0:	c35c                	sw	a5,4(a4)
   506d2:	865e                	mv	a2,s7
   506d4:	0005c783          	lbu	a5,0(a1)
   506d8:	cf91                	beqz	a5,506f4 <loop()+0xe4>
   506da:	4214                	lw	a3,0(a2)
   506dc:	872e                	mv	a4,a1
   506de:	0705                	add	a4,a4,1
   506e0:	c2dc                	sw	a5,4(a3)
   506e2:	00074783          	lbu	a5,0(a4)
   506e6:	ffe5                	bnez	a5,506de <loop()+0xce>
   506e8:	00c80663          	beq	a6,a2,506f4 <loop()+0xe4>
   506ec:	0005c783          	lbu	a5,0(a1)
   506f0:	0611                	add	a2,a2,4
   506f2:	f7e5                	bnez	a5,506da <loop()+0xca>
   506f4:	000515b7          	lui	a1,0x51
   506f8:	865e                	mv	a2,s7
   506fa:	86c58593          	add	a1,a1,-1940 # 5086c <_GLOBAL__sub_I_serial+0x5c>
   506fe:	4214                	lw	a3,0(a2)
   50700:	02000713          	li	a4,32
   50704:	87ae                	mv	a5,a1
   50706:	0785                	add	a5,a5,1
   50708:	c2d8                	sw	a4,4(a3)
   5070a:	0007c703          	lbu	a4,0(a5)
   5070e:	ff65                	bnez	a4,50706 <loop()+0xf6>
   50710:	0611                	add	a2,a2,4
   50712:	fecc16e3          	bne	s8,a2,506fe <loop()+0xee>
   50716:	29c02783          	lw	a5,668(zero) # 29c <STRONG>
   5071a:	0007c703          	lbu	a4,0(a5)
   5071e:	cb09                	beqz	a4,50730 <loop()+0x120>
   50720:	009b86b3          	add	a3,s7,s1
   50724:	4294                	lw	a3,0(a3)
   50726:	0785                	add	a5,a5,1
   50728:	c2d8                	sw	a4,4(a3)
   5072a:	0007c703          	lbu	a4,0(a5)
   5072e:	ff65                	bnez	a4,50726 <loop()+0x116>
   50730:	47a9                	li	a5,10
   50732:	04f50e63          	beq	a0,a5,5078e <loop()+0x17e>
   50736:	000519b7          	lui	s3,0x51
   5073a:	002dc937          	lui	s2,0x2dc
   5073e:	4a21                	li	s4,8
   50740:	009b8b33          	add	s6,s7,s1
   50744:	00051ab7          	lui	s5,0x51
   50748:	87098993          	add	s3,s3,-1936 # 50870 <_GLOBAL__sub_I_serial+0x60>
   5074c:	6c090913          	add	s2,s2,1728 # 2dc6c0 <_init_data_start+0x28b970>
   50750:	0b450363          	beq	a0,s4,507f6 <loop()+0x1e6>
   50754:	47ed                	li	a5,27
   50756:	08f50563          	beq	a0,a5,507e0 <loop()+0x1d0>
   5075a:	000ba703          	lw	a4,0(s7)
   5075e:	004ba783          	lw	a5,4(s7)
   50762:	008ba683          	lw	a3,8(s7)
   50766:	0ff57513          	zext.b	a0,a0
   5076a:	c348                	sw	a0,4(a4)
   5076c:	00cba703          	lw	a4,12(s7)
   50770:	c3c8                	sw	a0,4(a5)
   50772:	010ba783          	lw	a5,16(s7)
   50776:	c2c8                	sw	a0,4(a3)
   50778:	c348                	sw	a0,4(a4)
   5077a:	c3c8                	sw	a0,4(a5)
   5077c:	85ca                	mv	a1,s2
   5077e:	8522                	mv	a0,s0
   50780:	36f9                	jal	5034e <Serial::receive(unsigned long)>
   50782:	57fd                	li	a5,-1
   50784:	00f50563          	beq	a0,a5,5078e <loop()+0x17e>
   50788:	47a9                	li	a5,10
   5078a:	fcf513e3          	bne	a0,a5,50750 <loop()+0x140>
   5078e:	000ba603          	lw	a2,0(s7)
   50792:	004ba683          	lw	a3,4(s7)
   50796:	008ba783          	lw	a5,8(s7)
   5079a:	4729                	li	a4,10
   5079c:	c258                	sw	a4,4(a2)
   5079e:	00cba603          	lw	a2,12(s7)
   507a2:	c2d8                	sw	a4,4(a3)
   507a4:	010ba683          	lw	a3,16(s7)
   507a8:	c3d8                	sw	a4,4(a5)
   507aa:	29802783          	lw	a5,664(zero) # 298 <STRONG_CLEAR>
   507ae:	c258                	sw	a4,4(a2)
   507b0:	c2d8                	sw	a4,4(a3)
   507b2:	0007c703          	lbu	a4,0(a5)
   507b6:	cb09                	beqz	a4,507c8 <loop()+0x1b8>
   507b8:	9ba6                	add	s7,s7,s1
   507ba:	000ba683          	lw	a3,0(s7)
   507be:	0785                	add	a5,a5,1
   507c0:	c2d8                	sw	a4,4(a3)
   507c2:	0007c703          	lbu	a4,0(a5)
   507c6:	ff65                	bnez	a4,507be <loop()+0x1ae>
   507c8:	50b2                	lw	ra,44(sp)
   507ca:	5422                	lw	s0,40(sp)
   507cc:	5492                	lw	s1,36(sp)
   507ce:	5902                	lw	s2,32(sp)
   507d0:	49f2                	lw	s3,28(sp)
   507d2:	4a62                	lw	s4,24(sp)
   507d4:	4ad2                	lw	s5,20(sp)
   507d6:	4b42                	lw	s6,16(sp)
   507d8:	4bb2                	lw	s7,12(sp)
   507da:	4c22                	lw	s8,8(sp)
   507dc:	6145                	add	sp,sp,48
   507de:	8082                	ret
   507e0:	000b2683          	lw	a3,0(s6)
   507e4:	4729                	li	a4,10
   507e6:	874a8793          	add	a5,s5,-1932 # 50874 <_GLOBAL__sub_I_serial+0x64>
   507ea:	0785                	add	a5,a5,1
   507ec:	c2d8                	sw	a4,4(a3)
   507ee:	0007c703          	lbu	a4,0(a5)
   507f2:	ff65                	bnez	a4,507ea <loop()+0x1da>
   507f4:	b761                	j	5077c <loop()+0x16c>
   507f6:	865e                	mv	a2,s7
   507f8:	4214                	lw	a3,0(a2)
   507fa:	4721                	li	a4,8
   507fc:	87ce                	mv	a5,s3
   507fe:	0785                	add	a5,a5,1
   50800:	c2d8                	sw	a4,4(a3)
   50802:	0007c703          	lbu	a4,0(a5)
   50806:	ff65                	bnez	a4,507fe <loop()+0x1ee>
   50808:	0611                	add	a2,a2,4
   5080a:	ff8617e3          	bne	a2,s8,507f8 <loop()+0x1e8>
   5080e:	b7bd                	j	5077c <loop()+0x16c>

00050810 <_GLOBAL__sub_I_serial>:
   50810:	2bc02503          	lw	a0,700(zero) # 2bc <serial0>
   50814:	2b802583          	lw	a1,696(zero) # 2b8 <serial1>
   50818:	2b402603          	lw	a2,692(zero) # 2b4 <serial2>
   5081c:	2b002683          	lw	a3,688(zero) # 2b0 <serial3>
   50820:	2ac02703          	lw	a4,684(zero) # 2ac <serial4>
   50824:	2c400793          	li	a5,708
   50828:	c388                	sw	a0,0(a5)
   5082a:	c3cc                	sw	a1,4(a5)
   5082c:	c790                	sw	a2,8(a5)
   5082e:	c7d4                	sw	a3,12(a5)
   50830:	cb98                	sw	a4,16(a5)
   50832:	8082                	ret
   50834:	3130                	.2byte	0x3130
   50836:	3332                	.2byte	0x3332
   50838:	3534                	.2byte	0x3534
   5083a:	3736                	.2byte	0x3736
   5083c:	3938                	.2byte	0x3938
   5083e:	4241                	li	tp,16
   50840:	46454443          	.4byte	0x46454443
   50844:	0000                	unimp
   50846:	0000                	unimp
   50848:	636c6557          	.4byte	0x636c6557
   5084c:	20656d6f          	jal	s10,a6a52 <_init_data_start+0x55d02>
   50850:	6f74                	.2byte	0x6f74
   50852:	5320                	lw	s0,96(a4)
   50854:	7265                	lui	tp,0xffff9
   50856:	6169                	add	sp,sp,208
   50858:	206c                	.2byte	0x206c
   5085a:	74616843          	.4byte	0x74616843
   5085e:	0a21                	add	s4,s4,8
   50860:	0000                	unimp
   50862:	0000                	unimp
   50864:	7355                	lui	t1,0xffff5
   50866:	7265                	lui	tp,0xffff9
   50868:	0000                	unimp
   5086a:	0000                	unimp
   5086c:	3c20                	.2byte	0x3c20
   5086e:	0020                	add	s0,sp,8
   50870:	2008                	.2byte	0x2008
   50872:	0008                	.2byte	0x8
   50874:	5b0a                	lw	s6,160(sp)
   50876:	7345                	lui	t1,0xffff1
   50878:	65706163          	bltu	zero,s7,50eba <_init_data_start+0x16a>
   5087c:	6920                	.2byte	0x6920
   5087e:	72702073          	.4byte	0x72702073
   50882:	6269686f          	jal	a6,e6ea8 <_init_data_start+0x96158>
   50886:	7469                	lui	s0,0xffffa
   50888:	6465                	lui	s0,0x19
   5088a:	5d21                	li	s10,-24
   5088c:	000a                	c.slli	zero,0x2
   5088e:	0000                	unimp
   50890:	6d305b1b          	.4byte	0x6d305b1b
   50894:	0000                	unimp
   50896:	0000                	unimp
   50898:	6d345b1b          	.4byte	0x6d345b1b
   5089c:	0000                	unimp
   5089e:	0000                	unimp
   508a0:	39345b1b          	.4byte	0x39345b1b
   508a4:	006d                	c.nop	27
   508a6:	0000                	unimp
   508a8:	31345b1b          	.4byte	0x31345b1b
   508ac:	006d                	c.nop	27
   508ae:	0000                	unimp
   508b0:	32345b1b          	.4byte	0x32345b1b
   508b4:	006d                	c.nop	27
   508b6:	0000                	unimp
   508b8:	33345b1b          	.4byte	0x33345b1b
   508bc:	006d                	c.nop	27
   508be:	0000                	unimp
   508c0:	34345b1b          	.4byte	0x34345b1b
   508c4:	006d                	c.nop	27
   508c6:	0000                	unimp
   508c8:	35345b1b          	.4byte	0x35345b1b
   508cc:	006d                	c.nop	27
   508ce:	0000                	unimp
   508d0:	36345b1b          	.4byte	0x36345b1b
   508d4:	006d                	c.nop	27
   508d6:	0000                	unimp
   508d8:	0010                	.2byte	0x10
   508da:	0000                	unimp
   508dc:	0000                	unimp
   508de:	0000                	unimp
   508e0:	00527a03          	.4byte	0x527a03
   508e4:	7c01                	lui	s8,0xfffe0
   508e6:	0101                	add	sp,sp,0
   508e8:	00020d1b          	.4byte	0x20d1b
   508ec:	0010                	.2byte	0x10
   508ee:	0000                	unimp
   508f0:	0018                	.2byte	0x18
   508f2:	0000                	unimp
   508f4:	f8aa                	.2byte	0xf8aa
   508f6:	ffff                	.2byte	0xffff
   508f8:	0038                	add	a4,sp,8
   508fa:	0000                	unimp
   508fc:	0000                	unimp
   508fe:	0000                	unimp
   50900:	0010                	.2byte	0x10
   50902:	0000                	unimp
   50904:	002c                	add	a1,sp,8
   50906:	0000                	unimp
   50908:	f8ce                	.2byte	0xf8ce
   5090a:	ffff                	.2byte	0xffff
   5090c:	0026                	c.slli	zero,0x9
   5090e:	0000                	unimp
   50910:	0000                	unimp
   50912:	0000                	unimp
   50914:	0024                	add	s1,sp,8
   50916:	0000                	unimp
   50918:	0040                	add	s0,sp,4
   5091a:	0000                	unimp
   5091c:	f8e0                	.2byte	0xf8e0
   5091e:	ffff                	.2byte	0xffff
   50920:	002c                	add	a1,sp,8
   50922:	0000                	unimp
   50924:	4200                	lw	s0,0(a2)
   50926:	100e                	c.slli	zero,0x23
   50928:	8844                	.2byte	0x8844
   5092a:	8902                	jr	s2
   5092c:	01814203          	lbu	tp,24(sp)
   50930:	c15c                	sw	a5,4(a0)
   50932:	c842                	sw	a6,16(sp)
   50934:	c942                	sw	a6,144(sp)
   50936:	0e42                	sll	t3,t3,0x10
   50938:	0000                	unimp
   5093a:	0000                	unimp
   5093c:	0010                	.2byte	0x10
   5093e:	0000                	unimp
   50940:	0068                	add	a0,sp,12
   50942:	0000                	unimp
   50944:	f8e4                	.2byte	0xf8e4
   50946:	ffff                	.2byte	0xffff
   50948:	0006                	c.slli	zero,0x1
   5094a:	0000                	unimp
   5094c:	0000                	unimp
   5094e:	0000                	unimp
   50950:	0010                	.2byte	0x10
   50952:	0000                	unimp
   50954:	007c                	add	a5,sp,12
   50956:	0000                	unimp
   50958:	f8d6                	.2byte	0xf8d6
   5095a:	ffff                	.2byte	0xffff
   5095c:	0006                	c.slli	zero,0x1
   5095e:	0000                	unimp
   50960:	0000                	unimp
   50962:	0000                	unimp
   50964:	0010                	.2byte	0x10
   50966:	0000                	unimp
   50968:	0090                	add	a2,sp,64
   5096a:	0000                	unimp
   5096c:	f8c8                	.2byte	0xf8c8
   5096e:	ffff                	.2byte	0xffff
   50970:	0006                	c.slli	zero,0x1
   50972:	0000                	unimp
   50974:	0000                	unimp
   50976:	0000                	unimp
   50978:	0010                	.2byte	0x10
   5097a:	0000                	unimp
   5097c:	00a4                	add	s1,sp,72
   5097e:	0000                	unimp
   50980:	f8ba                	.2byte	0xf8ba
   50982:	ffff                	.2byte	0xffff
   50984:	0006                	c.slli	zero,0x1
   50986:	0000                	unimp
   50988:	0000                	unimp
   5098a:	0000                	unimp
   5098c:	0010                	.2byte	0x10
   5098e:	0000                	unimp
   50990:	00b8                	add	a4,sp,72
   50992:	0000                	unimp
   50994:	f8ac                	.2byte	0xf8ac
   50996:	ffff                	.2byte	0xffff
   50998:	0006                	c.slli	zero,0x1
   5099a:	0000                	unimp
   5099c:	0000                	unimp
   5099e:	0000                	unimp
   509a0:	0010                	.2byte	0x10
   509a2:	0000                	unimp
   509a4:	00cc                	add	a1,sp,68
   509a6:	0000                	unimp
   509a8:	f89e                	.2byte	0xf89e
   509aa:	ffff                	.2byte	0xffff
   509ac:	001a                	c.slli	zero,0x6
   509ae:	0000                	unimp
   509b0:	0000                	unimp
   509b2:	0000                	unimp
   509b4:	0010                	.2byte	0x10
   509b6:	0000                	unimp
   509b8:	00e0                	add	s0,sp,76
   509ba:	0000                	unimp
   509bc:	f8a4                	.2byte	0xf8a4
   509be:	ffff                	.2byte	0xffff
   509c0:	0022                	c.slli	zero,0x8
   509c2:	0000                	unimp
   509c4:	0000                	unimp
   509c6:	0000                	unimp
   509c8:	0010                	.2byte	0x10
   509ca:	0000                	unimp
   509cc:	00f4                	add	a3,sp,76
   509ce:	0000                	unimp
   509d0:	f8b2                	.2byte	0xf8b2
   509d2:	ffff                	.2byte	0xffff
   509d4:	0026                	c.slli	zero,0x9
   509d6:	0000                	unimp
   509d8:	0000                	unimp
   509da:	0000                	unimp
   509dc:	0010                	.2byte	0x10
   509de:	0000                	unimp
   509e0:	0108                	add	a0,sp,128
   509e2:	0000                	unimp
   509e4:	f8c4                	.2byte	0xf8c4
   509e6:	ffff                	.2byte	0xffff
   509e8:	002e                	c.slli	zero,0xb
   509ea:	0000                	unimp
   509ec:	0000                	unimp
   509ee:	0000                	unimp
   509f0:	0010                	.2byte	0x10
   509f2:	0000                	unimp
   509f4:	0000                	unimp
   509f6:	0000                	unimp
   509f8:	00527a03          	.4byte	0x527a03
   509fc:	7c01                	lui	s8,0xfffe0
   509fe:	0101                	add	sp,sp,0
   50a00:	00020d1b          	.4byte	0x20d1b
   50a04:	0034                	add	a3,sp,8
   50a06:	0000                	unimp
   50a08:	0018                	.2byte	0x18
   50a0a:	0000                	unimp
   50a0c:	f8ca                	.2byte	0xf8ca
   50a0e:	ffff                	.2byte	0xffff
   50a10:	0056                	c.slli	zero,0x15
   50a12:	0000                	unimp
   50a14:	4200                	lw	s0,0(a2)
   50a16:	200e                	.2byte	0x200e
   50a18:	894e                	mv	s2,s3
   50a1a:	93049203          	lh	tp,-1744(s1)
   50a1e:	9405                	sra	s0,s0,0x21
   50a20:	9506                	add	a0,a0,ra
   50a22:	88018107          	.4byte	0x88018107
   50a26:	0202                	c.slli64	tp
   50a28:	c136                	sw	a3,128(sp)
   50a2a:	c842                	sw	a6,16(sp)
   50a2c:	c942                	sw	a6,144(sp)
   50a2e:	d242                	sw	a6,36(sp)
   50a30:	d342                	sw	a6,164(sp)
   50a32:	d442                	sw	a6,40(sp)
   50a34:	d542                	sw	a6,168(sp)
   50a36:	0e42                	sll	t3,t3,0x10
   50a38:	0000                	unimp
   50a3a:	0000                	unimp
   50a3c:	0010                	.2byte	0x10
   50a3e:	0000                	unimp
   50a40:	0000                	unimp
   50a42:	0000                	unimp
   50a44:	00527a03          	.4byte	0x527a03
   50a48:	7c01                	lui	s8,0xfffe0
   50a4a:	0101                	add	sp,sp,0
   50a4c:	00020d1b          	.4byte	0x20d1b
   50a50:	0010                	.2byte	0x10
   50a52:	0000                	unimp
   50a54:	0018                	.2byte	0x18
   50a56:	0000                	unimp
   50a58:	f8d4                	.2byte	0xf8d4
   50a5a:	ffff                	.2byte	0xffff
   50a5c:	0006                	c.slli	zero,0x1
   50a5e:	0000                	unimp
   50a60:	0000                	unimp
   50a62:	0000                	unimp
   50a64:	001c                	.2byte	0x1c
   50a66:	0000                	unimp
   50a68:	002c                	add	a1,sp,8
   50a6a:	0000                	unimp
   50a6c:	f8c6                	.2byte	0xf8c6
   50a6e:	ffff                	.2byte	0xffff
   50a70:	001c                	.2byte	0x1c
   50a72:	0000                	unimp
   50a74:	4200                	lw	s0,0(a2)
   50a76:	100e                	c.slli	zero,0x23
   50a78:	8844                	.2byte	0x8844
   50a7a:	8102                	jr	sp
   50a7c:	5001                	c.li	zero,-32
   50a7e:	42c1                	li	t0,16
   50a80:	42c8                	lw	a0,4(a3)
   50a82:	000e                	c.slli	zero,0x3
   50a84:	0028                	add	a0,sp,8
   50a86:	0000                	unimp
   50a88:	004c                	add	a1,sp,4
   50a8a:	0000                	unimp
   50a8c:	f8c2                	.2byte	0xf8c2
   50a8e:	ffff                	.2byte	0xffff
   50a90:	0036                	c.slli	zero,0xd
   50a92:	0000                	unimp
   50a94:	4200                	lw	s0,0(a2)
   50a96:	100e                	c.slli	zero,0x23
   50a98:	8942                	mv	s2,a6
   50a9a:	02884803          	lbu	a6,40(a6)
   50a9e:	0492                	sll	s1,s1,0x4
   50aa0:	8144                	.2byte	0x8144
   50aa2:	5c01                	li	s8,-32
   50aa4:	42c1                	li	t0,16
   50aa6:	42c8                	lw	a0,4(a3)
   50aa8:	42c9                	li	t0,18
   50aaa:	42d2                	lw	t0,20(sp)
   50aac:	000e                	c.slli	zero,0x3
   50aae:	0000                	unimp
   50ab0:	0028                	add	a0,sp,8
   50ab2:	0000                	unimp
   50ab4:	0078                	add	a4,sp,12
   50ab6:	0000                	unimp
   50ab8:	f8cc                	.2byte	0xf8cc
   50aba:	ffff                	.2byte	0xffff
   50abc:	0052                	c.slli	zero,0x14
   50abe:	0000                	unimp
   50ac0:	4200                	lw	s0,0(a2)
   50ac2:	200e                	.2byte	0x200e
   50ac4:	884a                	mv	a6,s2
   50ac6:	8902                	jr	s2
   50ac8:	93049203          	lh	tp,-1744(s1)
   50acc:	8105                	srl	a0,a0,0x1
   50ace:	7801                	lui	a6,0xfffe0
   50ad0:	42c1                	li	t0,16
   50ad2:	42c8                	lw	a0,4(a3)
   50ad4:	42d2                	lw	t0,20(sp)
   50ad6:	42c944d3          	.4byte	0x42c944d3
   50ada:	000e                	c.slli	zero,0x3
   50adc:	0010                	.2byte	0x10
   50ade:	0000                	unimp
   50ae0:	00a4                	add	s1,sp,72
   50ae2:	0000                	unimp
   50ae4:	f8f2                	.2byte	0xf8f2
   50ae6:	ffff                	.2byte	0xffff
   50ae8:	0038                	add	a4,sp,8
   50aea:	0000                	unimp
   50aec:	0000                	unimp
   50aee:	0000                	unimp
   50af0:	0010                	.2byte	0x10
   50af2:	0000                	unimp
   50af4:	0000                	unimp
   50af6:	0000                	unimp
   50af8:	00527a03          	.4byte	0x527a03
   50afc:	7c01                	lui	s8,0xfffe0
   50afe:	0101                	add	sp,sp,0
   50b00:	00020d1b          	.4byte	0x20d1b
   50b04:	0010                	.2byte	0x10
   50b06:	0000                	unimp
   50b08:	0018                	.2byte	0x18
   50b0a:	0000                	unimp
   50b0c:	f902                	.2byte	0xf902
   50b0e:	ffff                	.2byte	0xffff
   50b10:	0002                	c.slli64	zero
   50b12:	0000                	unimp
   50b14:	0000                	unimp
   50b16:	0000                	unimp
   50b18:	0010                	.2byte	0x10
   50b1a:	0000                	unimp
   50b1c:	002c                	add	a1,sp,8
   50b1e:	0000                	unimp
   50b20:	f8f0                	.2byte	0xf8f0
   50b22:	ffff                	.2byte	0xffff
   50b24:	0002                	c.slli64	zero
   50b26:	0000                	unimp
   50b28:	0000                	unimp
   50b2a:	0000                	unimp
   50b2c:	0014                	.2byte	0x14
   50b2e:	0000                	unimp
   50b30:	0040                	add	s0,sp,4
   50b32:	0000                	unimp
   50b34:	f9d0                	.2byte	0xf9d0
   50b36:	ffff                	.2byte	0xffff
   50b38:	0026                	c.slli	zero,0x9
   50b3a:	0000                	unimp
   50b3c:	4200                	lw	s0,0(a2)
   50b3e:	100e                	c.slli	zero,0x23
   50b40:	8142                	mv	sp,a6
   50b42:	0001                	nop
   50b44:	0010                	.2byte	0x10
   50b46:	0000                	unimp
   50b48:	0058                	add	a4,sp,4
   50b4a:	0000                	unimp
   50b4c:	f8c6                	.2byte	0xf8c6
   50b4e:	ffff                	.2byte	0xffff
   50b50:	0002                	c.slli64	zero
   50b52:	0000                	unimp
   50b54:	0000                	unimp
   50b56:	0000                	unimp
   50b58:	0010                	.2byte	0x10
   50b5a:	0000                	unimp
   50b5c:	006c                	add	a1,sp,12
   50b5e:	0000                	unimp
   50b60:	f8b4                	.2byte	0xf8b4
   50b62:	ffff                	.2byte	0xffff
   50b64:	0002                	c.slli64	zero
   50b66:	0000                	unimp
   50b68:	0000                	unimp
   50b6a:	0000                	unimp
   50b6c:	0010                	.2byte	0x10
   50b6e:	0000                	unimp
   50b70:	0080                	add	s0,sp,64
   50b72:	0000                	unimp
   50b74:	f8a2                	.2byte	0xf8a2
   50b76:	ffff                	.2byte	0xffff
   50b78:	0002                	c.slli64	zero
   50b7a:	0000                	unimp
   50b7c:	0000                	unimp
   50b7e:	0000                	unimp
   50b80:	0010                	.2byte	0x10
   50b82:	0000                	unimp
   50b84:	0094                	add	a3,sp,64
   50b86:	0000                	unimp
   50b88:	f890                	.2byte	0xf890
   50b8a:	ffff                	.2byte	0xffff
   50b8c:	0002                	c.slli64	zero
   50b8e:	0000                	unimp
   50b90:	0000                	unimp
   50b92:	0000                	unimp
   50b94:	0010                	.2byte	0x10
   50b96:	0000                	unimp
   50b98:	00a8                	add	a0,sp,72
   50b9a:	0000                	unimp
   50b9c:	f87e                	.2byte	0xf87e
   50b9e:	ffff                	.2byte	0xffff
   50ba0:	0002                	c.slli64	zero
   50ba2:	0000                	unimp
   50ba4:	0000                	unimp
   50ba6:	0000                	unimp
   50ba8:	0010                	.2byte	0x10
   50baa:	0000                	unimp
   50bac:	00bc                	add	a5,sp,72
   50bae:	0000                	unimp
   50bb0:	f86c                	.2byte	0xf86c
   50bb2:	ffff                	.2byte	0xffff
   50bb4:	0002                	c.slli64	zero
   50bb6:	0000                	unimp
   50bb8:	0000                	unimp
   50bba:	0000                	unimp
   50bbc:	0010                	.2byte	0x10
   50bbe:	0000                	unimp
   50bc0:	00d0                	add	a2,sp,68
   50bc2:	0000                	unimp
   50bc4:	f85a                	.2byte	0xf85a
   50bc6:	ffff                	.2byte	0xffff
   50bc8:	0002                	c.slli64	zero
   50bca:	0000                	unimp
   50bcc:	0000                	unimp
   50bce:	0000                	unimp
   50bd0:	0010                	.2byte	0x10
   50bd2:	0000                	unimp
   50bd4:	00e4                	add	s1,sp,76
   50bd6:	0000                	unimp
   50bd8:	f848                	.2byte	0xf848
   50bda:	ffff                	.2byte	0xffff
   50bdc:	0002                	c.slli64	zero
   50bde:	0000                	unimp
   50be0:	0000                	unimp
   50be2:	0000                	unimp
   50be4:	0010                	.2byte	0x10
   50be6:	0000                	unimp
   50be8:	00f8                	add	a4,sp,76
   50bea:	0000                	unimp
   50bec:	f836                	.2byte	0xf836
   50bee:	ffff                	.2byte	0xffff
   50bf0:	0002                	c.slli64	zero
   50bf2:	0000                	unimp
   50bf4:	0000                	unimp
   50bf6:	0000                	unimp
   50bf8:	0010                	.2byte	0x10
   50bfa:	0000                	unimp
   50bfc:	010c                	add	a1,sp,128
   50bfe:	0000                	unimp
   50c00:	f824                	.2byte	0xf824
   50c02:	ffff                	.2byte	0xffff
   50c04:	0002                	c.slli64	zero
   50c06:	0000                	unimp
   50c08:	0000                	unimp
   50c0a:	0000                	unimp
   50c0c:	0010                	.2byte	0x10
   50c0e:	0000                	unimp
   50c10:	0120                	add	s0,sp,136
   50c12:	0000                	unimp
   50c14:	f812                	.2byte	0xf812
   50c16:	ffff                	.2byte	0xffff
   50c18:	0002                	c.slli64	zero
   50c1a:	0000                	unimp
   50c1c:	0000                	unimp
   50c1e:	0000                	unimp
   50c20:	0010                	.2byte	0x10
   50c22:	0000                	unimp
   50c24:	0134                	add	a3,sp,136
   50c26:	0000                	unimp
   50c28:	f800                	.2byte	0xf800
   50c2a:	ffff                	.2byte	0xffff
   50c2c:	0002                	c.slli64	zero
   50c2e:	0000                	unimp
   50c30:	0000                	unimp
   50c32:	0000                	unimp
   50c34:	0010                	.2byte	0x10
   50c36:	0000                	unimp
   50c38:	0148                	add	a0,sp,132
   50c3a:	0000                	unimp
   50c3c:	f7ee                	.2byte	0xf7ee
   50c3e:	ffff                	.2byte	0xffff
   50c40:	0002                	c.slli64	zero
   50c42:	0000                	unimp
   50c44:	0000                	unimp
   50c46:	0000                	unimp
   50c48:	0030                	add	a2,sp,8
   50c4a:	0000                	unimp
   50c4c:	015c                	add	a5,sp,132
   50c4e:	0000                	unimp
   50c50:	f7dc                	.2byte	0xf7dc
   50c52:	ffff                	.2byte	0xffff
   50c54:	00d8                	add	a4,sp,68
   50c56:	0000                	unimp
   50c58:	4200                	lw	s0,0(a2)
   50c5a:	100e                	c.slli	zero,0x23
   50c5c:	8846                	mv	a6,a7
   50c5e:	8902                	jr	s2
   50c60:	02018103          	lb	sp,32(gp)
   50c64:	0a56                	sll	s4,s4,0x15
   50c66:	42c1                	li	t0,16
   50c68:	44c8                	lw	a0,12(s1)
   50c6a:	42c9                	li	t0,18
   50c6c:	000e                	c.slli	zero,0x3
   50c6e:	0b42                	sll	s6,s6,0x10
   50c70:	6602                	.2byte	0x6602
   50c72:	42c1                	li	t0,16
   50c74:	44c8                	lw	a0,12(s1)
   50c76:	42c9                	li	t0,18
   50c78:	000e                	c.slli	zero,0x3
   50c7a:	0000                	unimp
   50c7c:	0010                	.2byte	0x10
   50c7e:	0000                	unimp
   50c80:	0190                	add	a2,sp,192
   50c82:	0000                	unimp
   50c84:	f8a6                	.2byte	0xf8a6
   50c86:	ffff                	.2byte	0xffff
   50c88:	0032                	c.slli	zero,0xc
   50c8a:	0000                	unimp
   50c8c:	0000                	unimp
   50c8e:	0000                	unimp
   50c90:	0010                	.2byte	0x10
   50c92:	0000                	unimp
   50c94:	0000                	unimp
   50c96:	0000                	unimp
   50c98:	00527a03          	.4byte	0x527a03
   50c9c:	7c01                	lui	s8,0xfffe0
   50c9e:	0101                	add	sp,sp,0
   50ca0:	00020d1b          	.4byte	0x20d1b
   50ca4:	0010                	.2byte	0x10
   50ca6:	0000                	unimp
   50ca8:	0018                	.2byte	0x18
   50caa:	0000                	unimp
   50cac:	f8b0                	.2byte	0xf8b0
   50cae:	ffff                	.2byte	0xffff
   50cb0:	001a                	c.slli	zero,0x6
   50cb2:	0000                	unimp
   50cb4:	0000                	unimp
   50cb6:	0000                	unimp
   50cb8:	0010                	.2byte	0x10
   50cba:	0000                	unimp
   50cbc:	002c                	add	a1,sp,8
   50cbe:	0000                	unimp
   50cc0:	f8b6                	.2byte	0xf8b6
   50cc2:	ffff                	.2byte	0xffff
   50cc4:	002a                	c.slli	zero,0xa
   50cc6:	0000                	unimp
   50cc8:	0000                	unimp
   50cca:	0000                	unimp
   50ccc:	0010                	.2byte	0x10
   50cce:	0000                	unimp
   50cd0:	0040                	add	s0,sp,4
   50cd2:	0000                	unimp
   50cd4:	f8cc                	.2byte	0xf8cc
   50cd6:	ffff                	.2byte	0xffff
   50cd8:	002a                	c.slli	zero,0xa
   50cda:	0000                	unimp
   50cdc:	0000                	unimp
   50cde:	0000                	unimp
   50ce0:	0010                	.2byte	0x10
   50ce2:	0000                	unimp
   50ce4:	0054                	add	a3,sp,4
   50ce6:	0000                	unimp
   50ce8:	f8e2                	.2byte	0xf8e2
   50cea:	ffff                	.2byte	0xffff
   50cec:	0046                	c.slli	zero,0x11
   50cee:	0000                	unimp
   50cf0:	0000                	unimp
   50cf2:	0000                	unimp
   50cf4:	0044                	add	s1,sp,4
   50cf6:	0000                	unimp
   50cf8:	0068                	add	a0,sp,12
   50cfa:	0000                	unimp
   50cfc:	f914                	.2byte	0xf914
   50cfe:	ffff                	.2byte	0xffff
   50d00:	0200                	add	s0,sp,256
   50d02:	0000                	unimp
   50d04:	4200                	lw	s0,0(a2)
   50d06:	300e                	.2byte	0x300e
   50d08:	9742                	add	a4,a4,a6
   50d0a:	5209                	li	tp,-30
   50d0c:	0492                	sll	s1,s1,0x4
   50d0e:	06940593          	add	a1,s0,105 # 19069 <_bss_end+0x18d89>
   50d12:	0181                	add	gp,gp,0
   50d14:	0288                	add	a0,sp,320
   50d16:	0389                	add	t2,t2,2
   50d18:	0795                	add	a5,a5,5
   50d1a:	0896                	sll	a7,a7,0x5
   50d1c:	0a98                	add	a4,sp,336
   50d1e:	0a01a403          	lw	s0,160(gp)
   50d22:	42c1                	li	t0,16
   50d24:	42c8                	lw	a0,4(a3)
   50d26:	42c9                	li	t0,18
   50d28:	42d2                	lw	t0,20(sp)
   50d2a:	42d442d3          	.4byte	0x42d442d3
   50d2e:	42d5                	li	t0,21
   50d30:	42d6                	lw	t0,84(sp)
   50d32:	42d842d7          	.4byte	0x42d842d7
   50d36:	000e                	c.slli	zero,0x3
   50d38:	0b42                	sll	s6,s6,0x10
   50d3a:	0000                	unimp
   50d3c:	0010                	.2byte	0x10
   50d3e:	0000                	unimp
   50d40:	00b0                	add	a2,sp,72
   50d42:	0000                	unimp
   50d44:	facc                	.2byte	0xfacc
   50d46:	ffff                	.2byte	0xffff
   50d48:	0024                	add	s1,sp,8
   50d4a:	0000                	unimp
   50d4c:	0000                	unimp
	...
