
.build/software.elf:     file format elf32-littleriscv


Disassembly of section .text:

00050000 <reset_vec>:
   50000:	aa89                	j	50152 <start>
   50002:	0001                	nop
   50004:	00000013          	nop
   50008:	00000013          	nop
   5000c:	00000013          	nop

00050010 <irq_vec>:
   50010:	0200a10b          	.4byte	0x200a10b
   50014:	0201218b          	.4byte	0x201218b
   50018:	00000093          	li	ra,0
   5001c:	0000410b          	.4byte	0x410b
   50020:	0020a023          	sw	sp,0(ra)
   50024:	0001410b          	.4byte	0x1410b
   50028:	0020a223          	sw	sp,4(ra)
   5002c:	0001c10b          	.4byte	0x1c10b
   50030:	0020a423          	sw	sp,8(ra)
   50034:	0030a623          	sw	gp,12(ra)
   50038:	0040a823          	sw	tp,16(ra)
   5003c:	0050aa23          	sw	t0,20(ra)
   50040:	0060ac23          	sw	t1,24(ra)
   50044:	0070ae23          	sw	t2,28(ra)
   50048:	0280a023          	sw	s0,32(ra)
   5004c:	0290a223          	sw	s1,36(ra)
   50050:	02a0a423          	sw	a0,40(ra)
   50054:	02b0a623          	sw	a1,44(ra)
   50058:	02c0a823          	sw	a2,48(ra)
   5005c:	02d0aa23          	sw	a3,52(ra)
   50060:	02e0ac23          	sw	a4,56(ra)
   50064:	02f0ae23          	sw	a5,60(ra)
   50068:	0500a023          	sw	a6,64(ra)
   5006c:	0510a223          	sw	a7,68(ra)
   50070:	0520a423          	sw	s2,72(ra)
   50074:	0530a623          	sw	s3,76(ra)
   50078:	0540a823          	sw	s4,80(ra)
   5007c:	0550aa23          	sw	s5,84(ra)
   50080:	0560ac23          	sw	s6,88(ra)
   50084:	0570ae23          	sw	s7,92(ra)
   50088:	0780a023          	sw	s8,96(ra)
   5008c:	0790a223          	sw	s9,100(ra)
   50090:	07a0a423          	sw	s10,104(ra)
   50094:	07b0a623          	sw	s11,108(ra)
   50098:	07c0a823          	sw	t3,112(ra)
   5009c:	07d0aa23          	sw	t4,116(ra)
   500a0:	07e0ac23          	sw	t5,120(ra)
   500a4:	07f0ae23          	sw	t6,124(ra)
   500a8:	28000113          	li	sp,640
   500ac:	00000513          	li	a0,0
   500b0:	0000c58b          	.4byte	0xc58b
   500b4:	3ae000ef          	jal	50462 <irq>
   500b8:	80aa                	mv	ra,a0
   500ba:	0000a103          	lw	sp,0(ra)
   500be:	0201200b          	.4byte	0x201200b
   500c2:	0040a103          	lw	sp,4(ra)
   500c6:	0201210b          	.4byte	0x201210b
   500ca:	0080a103          	lw	sp,8(ra)
   500ce:	0201218b          	.4byte	0x201218b
   500d2:	00c0a183          	lw	gp,12(ra)
   500d6:	0100a203          	lw	tp,16(ra)
   500da:	0140a283          	lw	t0,20(ra)
   500de:	0180a303          	lw	t1,24(ra)
   500e2:	01c0a383          	lw	t2,28(ra)
   500e6:	0200a403          	lw	s0,32(ra)
   500ea:	0240a483          	lw	s1,36(ra)
   500ee:	0280a503          	lw	a0,40(ra)
   500f2:	02c0a583          	lw	a1,44(ra)
   500f6:	0300a603          	lw	a2,48(ra)
   500fa:	0340a683          	lw	a3,52(ra)
   500fe:	0380a703          	lw	a4,56(ra)
   50102:	03c0a783          	lw	a5,60(ra)
   50106:	0400a803          	lw	a6,64(ra)
   5010a:	0440a883          	lw	a7,68(ra)
   5010e:	0480a903          	lw	s2,72(ra)
   50112:	04c0a983          	lw	s3,76(ra)
   50116:	0500aa03          	lw	s4,80(ra)
   5011a:	0540aa83          	lw	s5,84(ra)
   5011e:	0580ab03          	lw	s6,88(ra)
   50122:	05c0ab83          	lw	s7,92(ra)
   50126:	0600ac03          	lw	s8,96(ra)
   5012a:	0640ac83          	lw	s9,100(ra)
   5012e:	0680ad03          	lw	s10,104(ra)
   50132:	06c0ad83          	lw	s11,108(ra)
   50136:	0700ae03          	lw	t3,112(ra)
   5013a:	0740ae83          	lw	t4,116(ra)
   5013e:	0780af03          	lw	t5,120(ra)
   50142:	07c0af83          	lw	t6,124(ra)
   50146:	0001408b          	.4byte	0x1408b
   5014a:	0001c10b          	.4byte	0x1c10b
   5014e:	0400000b          	.4byte	0x400000b

00050152 <start>:
   50152:	4081                	li	ra,0
   50154:	4181                	li	gp,0
   50156:	4201                	li	tp,0
   50158:	4281                	li	t0,0
   5015a:	4301                	li	t1,0
   5015c:	4381                	li	t2,0
   5015e:	4401                	li	s0,0
   50160:	4481                	li	s1,0
   50162:	4501                	li	a0,0
   50164:	4581                	li	a1,0
   50166:	4601                	li	a2,0
   50168:	4681                	li	a3,0
   5016a:	4701                	li	a4,0
   5016c:	4781                	li	a5,0
   5016e:	4801                	li	a6,0
   50170:	4881                	li	a7,0
   50172:	4901                	li	s2,0
   50174:	4981                	li	s3,0
   50176:	4a01                	li	s4,0
   50178:	4a81                	li	s5,0
   5017a:	4b01                	li	s6,0
   5017c:	4b81                	li	s7,0
   5017e:	4c01                	li	s8,0
   50180:	4c81                	li	s9,0
   50182:	4d01                	li	s10,0
   50184:	4d81                	li	s11,0
   50186:	4e01                	li	t3,0
   50188:	4e81                	li	t4,0
   5018a:	4f01                	li	t5,0
   5018c:	4f81                	li	t6,0
   5018e:	2675                	jal	5053a <main>

00050190 <loop>:
   50190:	a001                	j	50190 <loop>
	...

0005019e <init_data()>:
   5019e:	00000613          	li	a2,0
   501a2:	28400713          	li	a4,644
   501a6:	02e67763          	bgeu	a2,a4,501d4 <init_data()+0x36>
   501aa:	fff70693          	add	a3,a4,-1
   501ae:	8e91                	sub	a3,a3,a2
   501b0:	9af1                	and	a3,a3,-4
   501b2:	0691                	add	a3,a3,4
   501b4:	000515b7          	lui	a1,0x51
   501b8:	96b2                	add	a3,a3,a2
   501ba:	00000793          	li	a5,0
   501be:	9c458593          	add	a1,a1,-1596 # 509c4 <_init_data_start>
   501c2:	40c78733          	sub	a4,a5,a2
   501c6:	972e                	add	a4,a4,a1
   501c8:	4318                	lw	a4,0(a4)
   501ca:	0791                	add	a5,a5,4
   501cc:	fee7ae23          	sw	a4,-4(a5)
   501d0:	fed799e3          	bne	a5,a3,501c2 <init_data()+0x24>
   501d4:	8082                	ret

000501d6 <init_bss()>:
   501d6:	28400713          	li	a4,644
   501da:	28c00693          	li	a3,652
   501de:	00d77e63          	bgeu	a4,a3,501fa <init_bss()+0x24>
   501e2:	16fd                	add	a3,a3,-1
   501e4:	8e99                	sub	a3,a3,a4
   501e6:	9af1                	and	a3,a3,-4
   501e8:	0691                	add	a3,a3,4
   501ea:	9736                	add	a4,a4,a3
   501ec:	28400793          	li	a5,644
   501f0:	0007a023          	sw	zero,0(a5)
   501f4:	0791                	add	a5,a5,4
   501f6:	fee79de3          	bne	a5,a4,501f0 <init_bss()+0x1a>
   501fa:	8082                	ret

000501fc <init_array()>:
   501fc:	1141                	add	sp,sp,-16
   501fe:	c422                	sw	s0,8(sp)
   50200:	c226                	sw	s1,4(sp)
   50202:	c606                	sw	ra,12(sp)
   50204:	28000793          	li	a5,640
   50208:	28400493          	li	s1,644
   5020c:	0097f963          	bgeu	a5,s1,5021e <init_array()+0x22>
   50210:	28000413          	li	s0,640
   50214:	401c                	lw	a5,0(s0)
   50216:	0411                	add	s0,s0,4
   50218:	9782                	jalr	a5
   5021a:	fe946de3          	bltu	s0,s1,50214 <init_array()+0x18>
   5021e:	40b2                	lw	ra,12(sp)
   50220:	4422                	lw	s0,8(sp)
   50222:	4492                	lw	s1,4(sp)
   50224:	0141                	add	sp,sp,16
   50226:	8082                	ret

00050228 <set_irq_mask(unsigned long)>:
   50228:	0605650b          	.4byte	0x605650b
   5022c:	8082                	ret

0005022e <wait_irq()>:
   5022e:	0800650b          	.4byte	0x800650b
   50232:	8082                	ret

00050234 <set_timer(unsigned long)>:
   50234:	0a05650b          	.4byte	0xa05650b
   50238:	8082                	ret

0005023a <rdcycle_l()>:
   5023a:	c0002573          	rdcycle	a0
   5023e:	8082                	ret

00050240 <rdcycle_h()>:
   50240:	c8002573          	rdcycleh	a0
   50244:	8082                	ret

00050246 <rdcycle(long)>:
   50246:	c8002773          	rdcycleh	a4
   5024a:	c00027f3          	rdcycle	a5
   5024e:	02000693          	li	a3,32
   50252:	8e89                	sub	a3,a3,a0
   50254:	00d71733          	sll	a4,a4,a3
   50258:	00a7d533          	srl	a0,a5,a0
   5025c:	8d59                	or	a0,a0,a4
   5025e:	8082                	ret

00050260 <delay(unsigned long, unsigned long)>:
   50260:	c80027f3          	rdcycleh	a5
   50264:	c0002773          	rdcycle	a4
   50268:	95ba                	add	a1,a1,a4
   5026a:	953e                	add	a0,a0,a5
   5026c:	e581                	bnez	a1,50274 <delay(unsigned long, unsigned long)+0x14>
   5026e:	a809                	j	50280 <delay(unsigned long, unsigned long)+0x20>
   50270:	00b77863          	bgeu	a4,a1,50280 <delay(unsigned long, unsigned long)+0x20>
   50274:	c80027f3          	rdcycleh	a5
   50278:	c0002773          	rdcycle	a4
   5027c:	fef57ae3          	bgeu	a0,a5,50270 <delay(unsigned long, unsigned long)+0x10>
   50280:	8082                	ret

00050282 <delay_us(unsigned long)>:
   50282:	c80026f3          	rdcycleh	a3
   50286:	c00027f3          	rdcycle	a5
   5028a:	06f2                	sll	a3,a3,0x1c
   5028c:	8391                	srl	a5,a5,0x4
   5028e:	8edd                	or	a3,a3,a5
   50290:	96aa                	add	a3,a3,a0
   50292:	ca91                	beqz	a3,502a6 <delay_us(unsigned long)+0x24>
   50294:	c80027f3          	rdcycleh	a5
   50298:	c0002773          	rdcycle	a4
   5029c:	07f2                	sll	a5,a5,0x1c
   5029e:	8311                	srl	a4,a4,0x4
   502a0:	8fd9                	or	a5,a5,a4
   502a2:	fed7e9e3          	bltu	a5,a3,50294 <delay_us(unsigned long)+0x12>
   502a6:	8082                	ret

000502a8 <delay_ms(unsigned long)>:
   502a8:	c80026f3          	rdcycleh	a3
   502ac:	c00027f3          	rdcycle	a5
   502b0:	3e800713          	li	a4,1000
   502b4:	02e50533          	mul	a0,a0,a4
   502b8:	06f2                	sll	a3,a3,0x1c
   502ba:	8391                	srl	a5,a5,0x4
   502bc:	8edd                	or	a3,a3,a5
   502be:	96aa                	add	a3,a3,a0
   502c0:	ca91                	beqz	a3,502d4 <delay_ms(unsigned long)+0x2c>
   502c2:	c80027f3          	rdcycleh	a5
   502c6:	c0002773          	rdcycle	a4
   502ca:	07f2                	sll	a5,a5,0x1c
   502cc:	8311                	srl	a4,a4,0x4
   502ce:	8fd9                	or	a5,a5,a4
   502d0:	fed7e9e3          	bltu	a5,a3,502c2 <delay_ms(unsigned long)+0x1a>
   502d4:	8082                	ret

000502d6 <Serial::baud(unsigned long)>:
   502d6:	00f427b7          	lui	a5,0xf42
   502da:	40078793          	add	a5,a5,1024 # f42400 <_init_data_start+0xef1a3c>
   502de:	02b7d5b3          	divu	a1,a5,a1
   502e2:	411c                	lw	a5,0(a0)
   502e4:	c38c                	sw	a1,0(a5)
   502e6:	8082                	ret

000502e8 <Serial::print(char)>:
   502e8:	411c                	lw	a5,0(a0)
   502ea:	c3cc                	sw	a1,4(a5)
   502ec:	8082                	ret

000502ee <Serial::print(char const*)>:
   502ee:	0005c783          	lbu	a5,0(a1)
   502f2:	c799                	beqz	a5,50300 <Serial::print(char const*)+0x12>
   502f4:	4118                	lw	a4,0(a0)
   502f6:	0585                	add	a1,a1,1
   502f8:	c35c                	sw	a5,4(a4)
   502fa:	0005c783          	lbu	a5,0(a1)
   502fe:	ffe5                	bnez	a5,502f6 <Serial::print(char const*)+0x8>
   50300:	8082                	ret

00050302 <Serial::hex(unsigned long, int)>:
   50302:	167d                	add	a2,a2,-1
   50304:	060a                	sll	a2,a2,0x2
   50306:	02064463          	bltz	a2,5032e <Serial::hex(unsigned long, int)+0x2c>
   5030a:	00052803          	lw	a6,0(a0)
   5030e:	00050737          	lui	a4,0x50
   50312:	59c70713          	add	a4,a4,1436 # 5059c <loop()+0x1e>
   50316:	56f1                	li	a3,-4
   50318:	00c5d7b3          	srl	a5,a1,a2
   5031c:	8bbd                	and	a5,a5,15
   5031e:	97ba                	add	a5,a5,a4
   50320:	0007c783          	lbu	a5,0(a5)
   50324:	1671                	add	a2,a2,-4
   50326:	00f82223          	sw	a5,4(a6)
   5032a:	fed617e3          	bne	a2,a3,50318 <Serial::hex(unsigned long, int)+0x16>
   5032e:	8082                	ret

00050330 <Serial::dec(unsigned long)>:
   50330:	1141                	add	sp,sp,-16
   50332:	0050                	add	a2,sp,4
   50334:	87b2                	mv	a5,a2
   50336:	4729                	li	a4,10
   50338:	e199                	bnez	a1,5033e <Serial::dec(unsigned long)+0xe>
   5033a:	00c79a63          	bne	a5,a2,5034e <Serial::dec(unsigned long)+0x1e>
   5033e:	02e5f6b3          	remu	a3,a1,a4
   50342:	0785                	add	a5,a5,1
   50344:	02e5d5b3          	divu	a1,a1,a4
   50348:	fed78fa3          	sb	a3,-1(a5)
   5034c:	b7f5                	j	50338 <Serial::dec(unsigned long)+0x8>
   5034e:	4114                	lw	a3,0(a0)
   50350:	fff7c703          	lbu	a4,-1(a5)
   50354:	17fd                	add	a5,a5,-1
   50356:	03070713          	add	a4,a4,48
   5035a:	0ff77713          	zext.b	a4,a4
   5035e:	c2d8                	sw	a4,4(a3)
   50360:	fec798e3          	bne	a5,a2,50350 <Serial::dec(unsigned long)+0x20>
   50364:	0141                	add	sp,sp,16
   50366:	8082                	ret

00050368 <Serial::receive()>:
   50368:	1141                	add	sp,sp,-16
   5036a:	c422                	sw	s0,8(sp)
   5036c:	c606                	sw	ra,12(sp)
   5036e:	842a                	mv	s0,a0
   50370:	35e9                	jal	5023a <rdcycle_l()>
   50372:	4018                	lw	a4,0(s0)
   50374:	57fd                	li	a5,-1
   50376:	4348                	lw	a0,4(a4)
   50378:	fef50fe3          	beq	a0,a5,50376 <Serial::receive()+0xe>
   5037c:	40b2                	lw	ra,12(sp)
   5037e:	4422                	lw	s0,8(sp)
   50380:	0141                	add	sp,sp,16
   50382:	8082                	ret

00050384 <Serial::receive(unsigned long)>:
   50384:	1141                	add	sp,sp,-16
   50386:	c226                	sw	s1,4(sp)
   50388:	84aa                	mv	s1,a0
   5038a:	4511                	li	a0,4
   5038c:	c422                	sw	s0,8(sp)
   5038e:	c04a                	sw	s2,0(sp)
   50390:	842e                	mv	s0,a1
   50392:	c606                	sw	ra,12(sp)
   50394:	3d4d                	jal	50246 <rdcycle(long)>
   50396:	942a                	add	s0,s0,a0
   50398:	597d                	li	s2,-1
   5039a:	a029                	j	503a4 <Serial::receive(unsigned long)+0x20>
   5039c:	409c                	lw	a5,0(s1)
   5039e:	43c8                	lw	a0,4(a5)
   503a0:	01251763          	bne	a0,s2,503ae <Serial::receive(unsigned long)+0x2a>
   503a4:	4511                	li	a0,4
   503a6:	3545                	jal	50246 <rdcycle(long)>
   503a8:	fea47ae3          	bgeu	s0,a0,5039c <Serial::receive(unsigned long)+0x18>
   503ac:	557d                	li	a0,-1
   503ae:	40b2                	lw	ra,12(sp)
   503b0:	4422                	lw	s0,8(sp)
   503b2:	4492                	lw	s1,4(sp)
   503b4:	4902                	lw	s2,0(sp)
   503b6:	0141                	add	sp,sp,16
   503b8:	8082                	ret

000503ba <Serial::receive_int()>:
   503ba:	1101                	add	sp,sp,-32
   503bc:	cc22                	sw	s0,24(sp)
   503be:	ca26                	sw	s1,20(sp)
   503c0:	c84a                	sw	s2,16(sp)
   503c2:	c64e                	sw	s3,12(sp)
   503c4:	ce06                	sw	ra,28(sp)
   503c6:	892a                	mv	s2,a0
   503c8:	4481                	li	s1,0
   503ca:	547d                	li	s0,-1
   503cc:	49a5                	li	s3,9
   503ce:	35b5                	jal	5023a <rdcycle_l()>
   503d0:	00092703          	lw	a4,0(s2)
   503d4:	435c                	lw	a5,4(a4)
   503d6:	fe878fe3          	beq	a5,s0,503d4 <Serial::receive_int()+0x1a>
   503da:	fd078713          	add	a4,a5,-48
   503de:	0ff77713          	zext.b	a4,a4
   503e2:	00e9ed63          	bltu	s3,a4,503fc <Serial::receive_int()+0x42>
   503e6:	00249713          	sll	a4,s1,0x2
   503ea:	0ff7f793          	zext.b	a5,a5
   503ee:	9726                	add	a4,a4,s1
   503f0:	fd078793          	add	a5,a5,-48
   503f4:	0706                	sll	a4,a4,0x1
   503f6:	94be                	add	s1,s1,a5
   503f8:	94ba                	add	s1,s1,a4
   503fa:	bfd1                	j	503ce <Serial::receive_int()+0x14>
   503fc:	40f2                	lw	ra,28(sp)
   503fe:	4462                	lw	s0,24(sp)
   50400:	4942                	lw	s2,16(sp)
   50402:	49b2                	lw	s3,12(sp)
   50404:	8526                	mv	a0,s1
   50406:	44d2                	lw	s1,20(sp)
   50408:	6105                	add	sp,sp,32
   5040a:	8082                	ret

0005040c <char_to_int(char)>:
   5040c:	87aa                	mv	a5,a0
   5040e:	fd050513          	add	a0,a0,-48
   50412:	0ff57693          	zext.b	a3,a0
   50416:	4725                	li	a4,9
   50418:	02d77263          	bgeu	a4,a3,5043c <char_to_int(char)+0x30>
   5041c:	fbf78713          	add	a4,a5,-65
   50420:	0ff77713          	zext.b	a4,a4
   50424:	4695                	li	a3,5
   50426:	00e6fc63          	bgeu	a3,a4,5043e <char_to_int(char)+0x32>
   5042a:	f9f78713          	add	a4,a5,-97
   5042e:	0ff77713          	zext.b	a4,a4
   50432:	557d                	li	a0,-1
   50434:	00e6e463          	bltu	a3,a4,5043c <char_to_int(char)+0x30>
   50438:	fa978513          	add	a0,a5,-87
   5043c:	8082                	ret
   5043e:	fc978513          	add	a0,a5,-55
   50442:	8082                	ret
   50444:	8082                	ret
   50446:	8082                	ret

00050448 <irq3()>:
   50448:	8082                	ret

0005044a <irq4()>:
   5044a:	8082                	ret

0005044c <irq5()>:
   5044c:	8082                	ret

0005044e <irq6()>:
   5044e:	8082                	ret

00050450 <irq7()>:
   50450:	8082                	ret

00050452 <irq8()>:
   50452:	8082                	ret

00050454 <irq9()>:
   50454:	8082                	ret

00050456 <irq10()>:
   50456:	8082                	ret

00050458 <irq11()>:
   50458:	8082                	ret

0005045a <irq12()>:
   5045a:	8082                	ret

0005045c <irq13()>:
   5045c:	8082                	ret

0005045e <irq14()>:
   5045e:	8082                	ret

00050460 <irq15()>:
   50460:	8082                	ret

00050462 <irq>:
   50462:	1141                	add	sp,sp,-16
   50464:	c422                	sw	s0,8(sp)
   50466:	c226                	sw	s1,4(sp)
   50468:	c606                	sw	ra,12(sp)
   5046a:	0085f793          	and	a5,a1,8
   5046e:	842e                	mv	s0,a1
   50470:	84aa                	mv	s1,a0
   50472:	efa1                	bnez	a5,504ca <irq+0x68>
   50474:	01047793          	and	a5,s0,16
   50478:	efa9                	bnez	a5,504d2 <irq+0x70>
   5047a:	02047793          	and	a5,s0,32
   5047e:	efb1                	bnez	a5,504da <irq+0x78>
   50480:	04047793          	and	a5,s0,64
   50484:	efb9                	bnez	a5,504e2 <irq+0x80>
   50486:	08047793          	and	a5,s0,128
   5048a:	e3a5                	bnez	a5,504ea <irq+0x88>
   5048c:	10047793          	and	a5,s0,256
   50490:	e3ad                	bnez	a5,504f2 <irq+0x90>
   50492:	20047793          	and	a5,s0,512
   50496:	e3b5                	bnez	a5,504fa <irq+0x98>
   50498:	40047793          	and	a5,s0,1024
   5049c:	e3bd                	bnez	a5,50502 <irq+0xa0>
   5049e:	00b45793          	srl	a5,s0,0xb
   504a2:	8b85                	and	a5,a5,1
   504a4:	e7a5                	bnez	a5,5050c <irq+0xaa>
   504a6:	6785                	lui	a5,0x1
   504a8:	8fe1                	and	a5,a5,s0
   504aa:	e7ad                	bnez	a5,50514 <irq+0xb2>
   504ac:	6789                	lui	a5,0x2
   504ae:	8fe1                	and	a5,a5,s0
   504b0:	e7b5                	bnez	a5,5051c <irq+0xba>
   504b2:	6791                	lui	a5,0x4
   504b4:	8fe1                	and	a5,a5,s0
   504b6:	e7bd                	bnez	a5,50524 <irq+0xc2>
   504b8:	67a1                	lui	a5,0x8
   504ba:	8c7d                	and	s0,s0,a5
   504bc:	e825                	bnez	s0,5052c <irq+0xca>
   504be:	40b2                	lw	ra,12(sp)
   504c0:	4422                	lw	s0,8(sp)
   504c2:	8526                	mv	a0,s1
   504c4:	4492                	lw	s1,4(sp)
   504c6:	0141                	add	sp,sp,16
   504c8:	8082                	ret
   504ca:	3fbd                	jal	50448 <irq3()>
   504cc:	01047793          	and	a5,s0,16
   504d0:	d7cd                	beqz	a5,5047a <irq+0x18>
   504d2:	3fa5                	jal	5044a <irq4()>
   504d4:	02047793          	and	a5,s0,32
   504d8:	d7c5                	beqz	a5,50480 <irq+0x1e>
   504da:	3f8d                	jal	5044c <irq5()>
   504dc:	04047793          	and	a5,s0,64
   504e0:	d3dd                	beqz	a5,50486 <irq+0x24>
   504e2:	37b5                	jal	5044e <irq6()>
   504e4:	08047793          	and	a5,s0,128
   504e8:	d3d5                	beqz	a5,5048c <irq+0x2a>
   504ea:	379d                	jal	50450 <irq7()>
   504ec:	10047793          	and	a5,s0,256
   504f0:	d3cd                	beqz	a5,50492 <irq+0x30>
   504f2:	3785                	jal	50452 <irq8()>
   504f4:	20047793          	and	a5,s0,512
   504f8:	d3c5                	beqz	a5,50498 <irq+0x36>
   504fa:	3fa9                	jal	50454 <irq9()>
   504fc:	40047793          	and	a5,s0,1024
   50500:	dfd9                	beqz	a5,5049e <irq+0x3c>
   50502:	3f91                	jal	50456 <irq10()>
   50504:	00b45793          	srl	a5,s0,0xb
   50508:	8b85                	and	a5,a5,1
   5050a:	dfd1                	beqz	a5,504a6 <irq+0x44>
   5050c:	37b1                	jal	50458 <irq11()>
   5050e:	6785                	lui	a5,0x1
   50510:	8fe1                	and	a5,a5,s0
   50512:	dfc9                	beqz	a5,504ac <irq+0x4a>
   50514:	3799                	jal	5045a <irq12()>
   50516:	6789                	lui	a5,0x2
   50518:	8fe1                	and	a5,a5,s0
   5051a:	dfc1                	beqz	a5,504b2 <irq+0x50>
   5051c:	3781                	jal	5045c <irq13()>
   5051e:	6791                	lui	a5,0x4
   50520:	8fe1                	and	a5,a5,s0
   50522:	dbd9                	beqz	a5,504b8 <irq+0x56>
   50524:	3f2d                	jal	5045e <irq14()>
   50526:	67a1                	lui	a5,0x8
   50528:	8c7d                	and	s0,s0,a5
   5052a:	d851                	beqz	s0,504be <irq+0x5c>
   5052c:	3f15                	jal	50460 <irq15()>
   5052e:	40b2                	lw	ra,12(sp)
   50530:	4422                	lw	s0,8(sp)
   50532:	8526                	mv	a0,s1
   50534:	4492                	lw	s1,4(sp)
   50536:	0141                	add	sp,sp,16
   50538:	8082                	ret

0005053a <main>:
   5053a:	1141                	add	sp,sp,-16
   5053c:	c606                	sw	ra,12(sp)
   5053e:	3185                	jal	5019e <init_data()>
   50540:	3959                	jal	501d6 <init_bss()>
   50542:	396d                	jal	501fc <init_array()>
   50544:	28802683          	lw	a3,648(zero) # 288 <rom_cfg>
   50548:	ff810737          	lui	a4,0xff810
   5054c:	177d                	add	a4,a4,-1 # ff80ffff <_init_data_start+0xff7bf63b>
   5054e:	429c                	lw	a5,0(a3)
   50550:	8ff9                	and	a5,a5,a4
   50552:	00400737          	lui	a4,0x400
   50556:	8fd9                	or	a5,a5,a4
   50558:	c29c                	sw	a5,0(a3)
   5055a:	2821                	jal	50572 <init()>
   5055c:	200d                	jal	5057e <loop()>
   5055e:	bffd                	j	5055c <main+0x22>

00050560 <_GLOBAL__sub_I_rom_cfg>:
   50560:	02000737          	lui	a4,0x2000
   50564:	28e02423          	sw	a4,648(zero) # 288 <rom_cfg>
   50568:	03000737          	lui	a4,0x3000
   5056c:	28e02223          	sw	a4,644(zero) # 284 <serial0>
   50570:	8082                	ret

00050572 <init()>:
   50572:	6589                	lui	a1,0x2
   50574:	58058593          	add	a1,a1,1408 # 2580 <_bss_end+0x22f4>
   50578:	28400513          	li	a0,644
   5057c:	bba9                	j	502d6 <Serial::baud(unsigned long)>

0005057e <loop()>:
   5057e:	000505b7          	lui	a1,0x50
   50582:	1141                	add	sp,sp,-16
   50584:	5b058593          	add	a1,a1,1456 # 505b0 <loop()+0x32>
   50588:	28400513          	li	a0,644
   5058c:	c606                	sw	ra,12(sp)
   5058e:	3385                	jal	502ee <Serial::print(char const*)>
   50590:	40b2                	lw	ra,12(sp)
   50592:	3e800513          	li	a0,1000
   50596:	0141                	add	sp,sp,16
   50598:	bb01                	j	502a8 <delay_ms(unsigned long)>
   5059a:	0000                	unimp
   5059c:	3130                	.2byte	0x3130
   5059e:	3332                	.2byte	0x3332
   505a0:	3534                	.2byte	0x3534
   505a2:	3736                	.2byte	0x3736
   505a4:	3938                	.2byte	0x3938
   505a6:	4241                	li	tp,16
   505a8:	46454443          	.4byte	0x46454443
   505ac:	0000                	unimp
   505ae:	0000                	unimp
   505b0:	6548                	.2byte	0x6548
   505b2:	6c6c                	.2byte	0x6c6c
   505b4:	5046206f          	j	b2ab8 <_init_data_start+0x620f4>
   505b8:	0a214147          	.4byte	0xa214147
   505bc:	0000                	unimp
   505be:	0000                	unimp
   505c0:	0010                	.2byte	0x10
   505c2:	0000                	unimp
   505c4:	0000                	unimp
   505c6:	0000                	unimp
   505c8:	00527a03          	.4byte	0x527a03
   505cc:	7c01                	lui	s8,0xfffe0
   505ce:	0101                	add	sp,sp,0
   505d0:	00020d1b          	.4byte	0x20d1b
   505d4:	0010                	.2byte	0x10
   505d6:	0000                	unimp
   505d8:	0018                	.2byte	0x18
   505da:	0000                	unimp
   505dc:	fbc2                	.2byte	0xfbc2
   505de:	ffff                	.2byte	0xffff
   505e0:	0038                	add	a4,sp,8
   505e2:	0000                	unimp
   505e4:	0000                	unimp
   505e6:	0000                	unimp
   505e8:	0010                	.2byte	0x10
   505ea:	0000                	unimp
   505ec:	002c                	add	a1,sp,8
   505ee:	0000                	unimp
   505f0:	fbe6                	.2byte	0xfbe6
   505f2:	ffff                	.2byte	0xffff
   505f4:	0026                	c.slli	zero,0x9
   505f6:	0000                	unimp
   505f8:	0000                	unimp
   505fa:	0000                	unimp
   505fc:	0024                	add	s1,sp,8
   505fe:	0000                	unimp
   50600:	0040                	add	s0,sp,4
   50602:	0000                	unimp
   50604:	fbf8                	.2byte	0xfbf8
   50606:	ffff                	.2byte	0xffff
   50608:	002c                	add	a1,sp,8
   5060a:	0000                	unimp
   5060c:	4200                	lw	s0,0(a2)
   5060e:	100e                	c.slli	zero,0x23
   50610:	8844                	.2byte	0x8844
   50612:	8902                	jr	s2
   50614:	01814203          	lbu	tp,24(sp)
   50618:	c15c                	sw	a5,4(a0)
   5061a:	c842                	sw	a6,16(sp)
   5061c:	c942                	sw	a6,144(sp)
   5061e:	0e42                	sll	t3,t3,0x10
   50620:	0000                	unimp
   50622:	0000                	unimp
   50624:	0010                	.2byte	0x10
   50626:	0000                	unimp
   50628:	0068                	add	a0,sp,12
   5062a:	0000                	unimp
   5062c:	fbfc                	.2byte	0xfbfc
   5062e:	ffff                	.2byte	0xffff
   50630:	0006                	c.slli	zero,0x1
   50632:	0000                	unimp
   50634:	0000                	unimp
   50636:	0000                	unimp
   50638:	0010                	.2byte	0x10
   5063a:	0000                	unimp
   5063c:	007c                	add	a5,sp,12
   5063e:	0000                	unimp
   50640:	fbee                	.2byte	0xfbee
   50642:	ffff                	.2byte	0xffff
   50644:	0006                	c.slli	zero,0x1
   50646:	0000                	unimp
   50648:	0000                	unimp
   5064a:	0000                	unimp
   5064c:	0010                	.2byte	0x10
   5064e:	0000                	unimp
   50650:	0090                	add	a2,sp,64
   50652:	0000                	unimp
   50654:	fbe0                	.2byte	0xfbe0
   50656:	ffff                	.2byte	0xffff
   50658:	0006                	c.slli	zero,0x1
   5065a:	0000                	unimp
   5065c:	0000                	unimp
   5065e:	0000                	unimp
   50660:	0010                	.2byte	0x10
   50662:	0000                	unimp
   50664:	00a4                	add	s1,sp,72
   50666:	0000                	unimp
   50668:	fbd2                	.2byte	0xfbd2
   5066a:	ffff                	.2byte	0xffff
   5066c:	0006                	c.slli	zero,0x1
   5066e:	0000                	unimp
   50670:	0000                	unimp
   50672:	0000                	unimp
   50674:	0010                	.2byte	0x10
   50676:	0000                	unimp
   50678:	00b8                	add	a4,sp,72
   5067a:	0000                	unimp
   5067c:	fbc4                	.2byte	0xfbc4
   5067e:	ffff                	.2byte	0xffff
   50680:	0006                	c.slli	zero,0x1
   50682:	0000                	unimp
   50684:	0000                	unimp
   50686:	0000                	unimp
   50688:	0010                	.2byte	0x10
   5068a:	0000                	unimp
   5068c:	00cc                	add	a1,sp,68
   5068e:	0000                	unimp
   50690:	fbb6                	.2byte	0xfbb6
   50692:	ffff                	.2byte	0xffff
   50694:	001a                	c.slli	zero,0x6
   50696:	0000                	unimp
   50698:	0000                	unimp
   5069a:	0000                	unimp
   5069c:	0010                	.2byte	0x10
   5069e:	0000                	unimp
   506a0:	00e0                	add	s0,sp,76
   506a2:	0000                	unimp
   506a4:	fbbc                	.2byte	0xfbbc
   506a6:	ffff                	.2byte	0xffff
   506a8:	0022                	c.slli	zero,0x8
   506aa:	0000                	unimp
   506ac:	0000                	unimp
   506ae:	0000                	unimp
   506b0:	0010                	.2byte	0x10
   506b2:	0000                	unimp
   506b4:	00f4                	add	a3,sp,76
   506b6:	0000                	unimp
   506b8:	fbca                	.2byte	0xfbca
   506ba:	ffff                	.2byte	0xffff
   506bc:	0026                	c.slli	zero,0x9
   506be:	0000                	unimp
   506c0:	0000                	unimp
   506c2:	0000                	unimp
   506c4:	0010                	.2byte	0x10
   506c6:	0000                	unimp
   506c8:	0108                	add	a0,sp,128
   506ca:	0000                	unimp
   506cc:	fbdc                	.2byte	0xfbdc
   506ce:	ffff                	.2byte	0xffff
   506d0:	002e                	c.slli	zero,0xb
   506d2:	0000                	unimp
   506d4:	0000                	unimp
   506d6:	0000                	unimp
   506d8:	0010                	.2byte	0x10
   506da:	0000                	unimp
   506dc:	0000                	unimp
   506de:	0000                	unimp
   506e0:	00527a03          	.4byte	0x527a03
   506e4:	7c01                	lui	s8,0xfffe0
   506e6:	0101                	add	sp,sp,0
   506e8:	00020d1b          	.4byte	0x20d1b
   506ec:	0010                	.2byte	0x10
   506ee:	0000                	unimp
   506f0:	0018                	.2byte	0x18
   506f2:	0000                	unimp
   506f4:	fbe2                	.2byte	0xfbe2
   506f6:	ffff                	.2byte	0xffff
   506f8:	0012                	c.slli	zero,0x4
   506fa:	0000                	unimp
   506fc:	0000                	unimp
   506fe:	0000                	unimp
   50700:	0010                	.2byte	0x10
   50702:	0000                	unimp
   50704:	002c                	add	a1,sp,8
   50706:	0000                	unimp
   50708:	fbe0                	.2byte	0xfbe0
   5070a:	ffff                	.2byte	0xffff
   5070c:	0006                	c.slli	zero,0x1
   5070e:	0000                	unimp
   50710:	0000                	unimp
   50712:	0000                	unimp
   50714:	0010                	.2byte	0x10
   50716:	0000                	unimp
   50718:	0040                	add	s0,sp,4
   5071a:	0000                	unimp
   5071c:	fbd2                	.2byte	0xfbd2
   5071e:	ffff                	.2byte	0xffff
   50720:	0014                	.2byte	0x14
   50722:	0000                	unimp
   50724:	0000                	unimp
   50726:	0000                	unimp
   50728:	0010                	.2byte	0x10
   5072a:	0000                	unimp
   5072c:	0054                	add	a3,sp,4
   5072e:	0000                	unimp
   50730:	fbd2                	.2byte	0xfbd2
   50732:	ffff                	.2byte	0xffff
   50734:	002e                	c.slli	zero,0xb
   50736:	0000                	unimp
   50738:	0000                	unimp
   5073a:	0000                	unimp
   5073c:	0014                	.2byte	0x14
   5073e:	0000                	unimp
   50740:	0068                	add	a0,sp,12
   50742:	0000                	unimp
   50744:	fbec                	.2byte	0xfbec
   50746:	ffff                	.2byte	0xffff
   50748:	0038                	add	a4,sp,8
   5074a:	0000                	unimp
   5074c:	4200                	lw	s0,0(a2)
   5074e:	100e                	c.slli	zero,0x23
   50750:	0e74                	add	a3,sp,796
   50752:	0000                	unimp
   50754:	001c                	.2byte	0x1c
   50756:	0000                	unimp
   50758:	0080                	add	s0,sp,64
   5075a:	0000                	unimp
   5075c:	fc0c                	.2byte	0xfc0c
   5075e:	ffff                	.2byte	0xffff
   50760:	001c                	.2byte	0x1c
   50762:	0000                	unimp
   50764:	4200                	lw	s0,0(a2)
   50766:	100e                	c.slli	zero,0x23
   50768:	8844                	.2byte	0x8844
   5076a:	8102                	jr	sp
   5076c:	5001                	c.li	zero,-32
   5076e:	42c1                	li	t0,16
   50770:	42c8                	lw	a0,4(a3)
   50772:	000e                	c.slli	zero,0x3
   50774:	0028                	add	a0,sp,8
   50776:	0000                	unimp
   50778:	00a0                	add	s0,sp,72
   5077a:	0000                	unimp
   5077c:	fc08                	.2byte	0xfc08
   5077e:	ffff                	.2byte	0xffff
   50780:	0036                	c.slli	zero,0xd
   50782:	0000                	unimp
   50784:	4200                	lw	s0,0(a2)
   50786:	100e                	c.slli	zero,0x23
   50788:	8942                	mv	s2,a6
   5078a:	02884803          	lbu	a6,40(a6)
   5078e:	0492                	sll	s1,s1,0x4
   50790:	8144                	.2byte	0x8144
   50792:	5c01                	li	s8,-32
   50794:	42c1                	li	t0,16
   50796:	42c8                	lw	a0,4(a3)
   50798:	42c9                	li	t0,18
   5079a:	42d2                	lw	t0,20(sp)
   5079c:	000e                	c.slli	zero,0x3
   5079e:	0000                	unimp
   507a0:	0028                	add	a0,sp,8
   507a2:	0000                	unimp
   507a4:	00cc                	add	a1,sp,68
   507a6:	0000                	unimp
   507a8:	fc12                	.2byte	0xfc12
   507aa:	ffff                	.2byte	0xffff
   507ac:	0052                	c.slli	zero,0x14
   507ae:	0000                	unimp
   507b0:	4200                	lw	s0,0(a2)
   507b2:	200e                	.2byte	0x200e
   507b4:	884a                	mv	a6,s2
   507b6:	8902                	jr	s2
   507b8:	93049203          	lh	tp,-1744(s1)
   507bc:	8105                	srl	a0,a0,0x1
   507be:	7801                	lui	a6,0xfffe0
   507c0:	42c1                	li	t0,16
   507c2:	42c8                	lw	a0,4(a3)
   507c4:	42d2                	lw	t0,20(sp)
   507c6:	42c944d3          	.4byte	0x42c944d3
   507ca:	000e                	c.slli	zero,0x3
   507cc:	0010                	.2byte	0x10
   507ce:	0000                	unimp
   507d0:	00f8                	add	a4,sp,76
   507d2:	0000                	unimp
   507d4:	fc38                	.2byte	0xfc38
   507d6:	ffff                	.2byte	0xffff
   507d8:	0038                	add	a4,sp,8
   507da:	0000                	unimp
   507dc:	0000                	unimp
   507de:	0000                	unimp
   507e0:	0010                	.2byte	0x10
   507e2:	0000                	unimp
   507e4:	0000                	unimp
   507e6:	0000                	unimp
   507e8:	00527a03          	.4byte	0x527a03
   507ec:	7c01                	lui	s8,0xfffe0
   507ee:	0101                	add	sp,sp,0
   507f0:	00020d1b          	.4byte	0x20d1b
   507f4:	0010                	.2byte	0x10
   507f6:	0000                	unimp
   507f8:	0018                	.2byte	0x18
   507fa:	0000                	unimp
   507fc:	fc48                	.2byte	0xfc48
   507fe:	ffff                	.2byte	0xffff
   50800:	0002                	c.slli64	zero
   50802:	0000                	unimp
   50804:	0000                	unimp
   50806:	0000                	unimp
   50808:	0010                	.2byte	0x10
   5080a:	0000                	unimp
   5080c:	002c                	add	a1,sp,8
   5080e:	0000                	unimp
   50810:	fc36                	.2byte	0xfc36
   50812:	ffff                	.2byte	0xffff
   50814:	0002                	c.slli64	zero
   50816:	0000                	unimp
   50818:	0000                	unimp
   5081a:	0000                	unimp
   5081c:	0014                	.2byte	0x14
   5081e:	0000                	unimp
   50820:	0040                	add	s0,sp,4
   50822:	0000                	unimp
   50824:	fd16                	.2byte	0xfd16
   50826:	ffff                	.2byte	0xffff
   50828:	0026                	c.slli	zero,0x9
   5082a:	0000                	unimp
   5082c:	4200                	lw	s0,0(a2)
   5082e:	100e                	c.slli	zero,0x23
   50830:	8142                	mv	sp,a6
   50832:	0001                	nop
   50834:	0010                	.2byte	0x10
   50836:	0000                	unimp
   50838:	0058                	add	a4,sp,4
   5083a:	0000                	unimp
   5083c:	fc0c                	.2byte	0xfc0c
   5083e:	ffff                	.2byte	0xffff
   50840:	0002                	c.slli64	zero
   50842:	0000                	unimp
   50844:	0000                	unimp
   50846:	0000                	unimp
   50848:	0010                	.2byte	0x10
   5084a:	0000                	unimp
   5084c:	006c                	add	a1,sp,12
   5084e:	0000                	unimp
   50850:	fbfa                	.2byte	0xfbfa
   50852:	ffff                	.2byte	0xffff
   50854:	0002                	c.slli64	zero
   50856:	0000                	unimp
   50858:	0000                	unimp
   5085a:	0000                	unimp
   5085c:	0010                	.2byte	0x10
   5085e:	0000                	unimp
   50860:	0080                	add	s0,sp,64
   50862:	0000                	unimp
   50864:	fbe8                	.2byte	0xfbe8
   50866:	ffff                	.2byte	0xffff
   50868:	0002                	c.slli64	zero
   5086a:	0000                	unimp
   5086c:	0000                	unimp
   5086e:	0000                	unimp
   50870:	0010                	.2byte	0x10
   50872:	0000                	unimp
   50874:	0094                	add	a3,sp,64
   50876:	0000                	unimp
   50878:	fbd6                	.2byte	0xfbd6
   5087a:	ffff                	.2byte	0xffff
   5087c:	0002                	c.slli64	zero
   5087e:	0000                	unimp
   50880:	0000                	unimp
   50882:	0000                	unimp
   50884:	0010                	.2byte	0x10
   50886:	0000                	unimp
   50888:	00a8                	add	a0,sp,72
   5088a:	0000                	unimp
   5088c:	fbc4                	.2byte	0xfbc4
   5088e:	ffff                	.2byte	0xffff
   50890:	0002                	c.slli64	zero
   50892:	0000                	unimp
   50894:	0000                	unimp
   50896:	0000                	unimp
   50898:	0010                	.2byte	0x10
   5089a:	0000                	unimp
   5089c:	00bc                	add	a5,sp,72
   5089e:	0000                	unimp
   508a0:	fbb2                	.2byte	0xfbb2
   508a2:	ffff                	.2byte	0xffff
   508a4:	0002                	c.slli64	zero
   508a6:	0000                	unimp
   508a8:	0000                	unimp
   508aa:	0000                	unimp
   508ac:	0010                	.2byte	0x10
   508ae:	0000                	unimp
   508b0:	00d0                	add	a2,sp,68
   508b2:	0000                	unimp
   508b4:	fba0                	.2byte	0xfba0
   508b6:	ffff                	.2byte	0xffff
   508b8:	0002                	c.slli64	zero
   508ba:	0000                	unimp
   508bc:	0000                	unimp
   508be:	0000                	unimp
   508c0:	0010                	.2byte	0x10
   508c2:	0000                	unimp
   508c4:	00e4                	add	s1,sp,76
   508c6:	0000                	unimp
   508c8:	fb8e                	.2byte	0xfb8e
   508ca:	ffff                	.2byte	0xffff
   508cc:	0002                	c.slli64	zero
   508ce:	0000                	unimp
   508d0:	0000                	unimp
   508d2:	0000                	unimp
   508d4:	0010                	.2byte	0x10
   508d6:	0000                	unimp
   508d8:	00f8                	add	a4,sp,76
   508da:	0000                	unimp
   508dc:	fb7c                	.2byte	0xfb7c
   508de:	ffff                	.2byte	0xffff
   508e0:	0002                	c.slli64	zero
   508e2:	0000                	unimp
   508e4:	0000                	unimp
   508e6:	0000                	unimp
   508e8:	0010                	.2byte	0x10
   508ea:	0000                	unimp
   508ec:	010c                	add	a1,sp,128
   508ee:	0000                	unimp
   508f0:	fb6a                	.2byte	0xfb6a
   508f2:	ffff                	.2byte	0xffff
   508f4:	0002                	c.slli64	zero
   508f6:	0000                	unimp
   508f8:	0000                	unimp
   508fa:	0000                	unimp
   508fc:	0010                	.2byte	0x10
   508fe:	0000                	unimp
   50900:	0120                	add	s0,sp,136
   50902:	0000                	unimp
   50904:	fb58                	.2byte	0xfb58
   50906:	ffff                	.2byte	0xffff
   50908:	0002                	c.slli64	zero
   5090a:	0000                	unimp
   5090c:	0000                	unimp
   5090e:	0000                	unimp
   50910:	0010                	.2byte	0x10
   50912:	0000                	unimp
   50914:	0134                	add	a3,sp,136
   50916:	0000                	unimp
   50918:	fb46                	.2byte	0xfb46
   5091a:	ffff                	.2byte	0xffff
   5091c:	0002                	c.slli64	zero
   5091e:	0000                	unimp
   50920:	0000                	unimp
   50922:	0000                	unimp
   50924:	0010                	.2byte	0x10
   50926:	0000                	unimp
   50928:	0148                	add	a0,sp,132
   5092a:	0000                	unimp
   5092c:	fb34                	.2byte	0xfb34
   5092e:	ffff                	.2byte	0xffff
   50930:	0002                	c.slli64	zero
   50932:	0000                	unimp
   50934:	0000                	unimp
   50936:	0000                	unimp
   50938:	0030                	add	a2,sp,8
   5093a:	0000                	unimp
   5093c:	015c                	add	a5,sp,132
   5093e:	0000                	unimp
   50940:	fb22                	.2byte	0xfb22
   50942:	ffff                	.2byte	0xffff
   50944:	00d8                	add	a4,sp,68
   50946:	0000                	unimp
   50948:	4200                	lw	s0,0(a2)
   5094a:	100e                	c.slli	zero,0x23
   5094c:	8846                	mv	a6,a7
   5094e:	8902                	jr	s2
   50950:	02018103          	lb	sp,32(gp)
   50954:	0a56                	sll	s4,s4,0x15
   50956:	42c1                	li	t0,16
   50958:	44c8                	lw	a0,12(s1)
   5095a:	42c9                	li	t0,18
   5095c:	000e                	c.slli	zero,0x3
   5095e:	0b42                	sll	s6,s6,0x10
   50960:	6602                	.2byte	0x6602
   50962:	42c1                	li	t0,16
   50964:	44c8                	lw	a0,12(s1)
   50966:	42c9                	li	t0,18
   50968:	000e                	c.slli	zero,0x3
   5096a:	0000                	unimp
   5096c:	0010                	.2byte	0x10
   5096e:	0000                	unimp
   50970:	0190                	add	a2,sp,192
   50972:	0000                	unimp
   50974:	fbec                	.2byte	0xfbec
   50976:	ffff                	.2byte	0xffff
   50978:	0012                	c.slli	zero,0x4
   5097a:	0000                	unimp
   5097c:	0000                	unimp
   5097e:	0000                	unimp
   50980:	0010                	.2byte	0x10
   50982:	0000                	unimp
   50984:	0000                	unimp
   50986:	0000                	unimp
   50988:	00527a03          	.4byte	0x527a03
   5098c:	7c01                	lui	s8,0xfffe0
   5098e:	0101                	add	sp,sp,0
   50990:	00020d1b          	.4byte	0x20d1b
   50994:	0010                	.2byte	0x10
   50996:	0000                	unimp
   50998:	0018                	.2byte	0x18
   5099a:	0000                	unimp
   5099c:	fbd6                	.2byte	0xfbd6
   5099e:	ffff                	.2byte	0xffff
   509a0:	000c                	.2byte	0xc
   509a2:	0000                	unimp
   509a4:	0000                	unimp
   509a6:	0000                	unimp
   509a8:	0018                	.2byte	0x18
   509aa:	0000                	unimp
   509ac:	002c                	add	a1,sp,8
   509ae:	0000                	unimp
   509b0:	fbce                	.2byte	0xfbce
   509b2:	ffff                	.2byte	0xffff
   509b4:	001c                	.2byte	0x1c
   509b6:	0000                	unimp
   509b8:	4600                	lw	s0,8(a2)
   509ba:	100e                	c.slli	zero,0x23
   509bc:	814a                	mv	sp,s2
   509be:	4401                	li	s0,0
   509c0:	46c1                	li	a3,16
   509c2:	000e                	c.slli	zero,0x3
